

Microchip MPLAB XC8 Assembler V2.46 build 20240104201356 
                                                                                               Fri Jul 19 21:02:05 2024

Microchip MPLAB XC8 C Compiler v2.46 (Free license) build 20240104201356 Og1 
     1                           	processor	16LF15313
     2                           	pagewidth 120
     3                           	opt	flic
     4                           	psect	stringtext1,global,class=STRCODE,delta=2,noexec
     5                           	psect	stringtext2,global,class=STRCODE,delta=2,noexec
     6                           	psect	stringtext3,global,class=STRCODE,delta=2,noexec
     7                           	psect	stringtext4,global,class=STRCODE,delta=2,noexec
     8                           	psect	cinit,global,class=CODE,merge=1,delta=2
     9                           	psect	bssCOMMON,global,class=COMMON,space=1,delta=1,noexec
    10                           	psect	bssBANK0,global,class=BANK0,space=1,delta=1,noexec
    11                           	psect	clrtext,global,class=CODE,delta=2
    12                           	psect	cstackCOMMON,global,class=COMMON,space=1,delta=1,noexec
    13                           	psect	cstackBANK0,global,class=BANK0,space=1,delta=1,noexec
    14                           	psect	maintext,global,class=CODE,merge=1,split=1,delta=2
    15                           	psect	text1,local,class=CODE,merge=1,delta=2
    16                           	psect	text2,local,class=CODE,merge=1,delta=2
    17                           	psect	text3,local,class=CODE,merge=1,delta=2
    18                           	psect	text4,local,class=CODE,merge=1,delta=2
    19                           	psect	text5,local,class=CODE,merge=1,delta=2
    20                           	psect	text6,local,class=CODE,merge=1,delta=2
    21                           	psect	text7,local,class=CODE,merge=1,delta=2
    22                           	psect	text8,local,class=CODE,merge=1,delta=2,group=1
    23                           	psect	text9,local,class=CODE,merge=1,delta=2,group=1
    24                           	psect	text10,local,class=CODE,merge=1,delta=2
    25                           	psect	text11,local,class=CODE,merge=1,delta=2
    26                           	psect	text12,local,class=CODE,merge=1,delta=2
    27                           	psect	text13,local,class=CODE,merge=1,delta=2
    28                           	psect	text14,local,class=CODE,merge=1,delta=2
    29                           	psect	text15,local,class=CODE,merge=1,delta=2
    30                           	psect	text16,local,class=CODE,merge=1,delta=2
    31                           	psect	intentry,global,class=CODE,delta=2
    32                           	psect	config,global,abs,ovrld,class=CONFIG,space=4,delta=2,noexec
    33                           	dabs	1,0x7E,2
    34     0000                     
    35                           ; Generated 11/01/2024 GMT
    36                           ; 
    37                           ; Copyright © 2024, Microchip Technology Inc. and its subsidiaries ("Microchip")
    38                           ; All rights reserved.
    39                           ; 
    40                           ; This software is developed by Microchip Technology Inc. and its subsidiaries ("Microch
      +                          ip").
    41                           ; 
    42                           ; Redistribution and use in source and binary forms, with or without modification, are
    43                           ; permitted provided that the following conditions are met:
    44                           ; 
    45                           ;     1. Redistributions of source code must retain the above copyright notice, this lis
      +                          t of
    46                           ;        conditions and the following disclaimer.
    47                           ; 
    48                           ;     2. Redistributions in binary form must reproduce the above copyright notice, this 
      +                          list
    49                           ;        of conditions and the following disclaimer in the documentation and/or other
    50                           ;        materials provided with the distribution. Publication is not required when
    51                           ;        this file is used in an embedded application.
    52                           ; 
    53                           ;     3. Microchip's name may not be used to endorse or promote products derived from th
      +                          is
    54                           ;        software without specific prior written permission.
    55                           ; 
    56                           ; THIS SOFTWARE IS PROVIDED BY MICROCHIP "AS IS" AND ANY EXPRESS OR IMPLIED WARRANTIES,
    57                           ; INCLUDING, BUT NOT LIMITED TO, THE IMPLIED WARRANTIES OF MERCHANTABILITY AND FITNESS F
      +                          OR
    58                           ; PURPOSE ARE DISCLAIMED.  IN NO EVENT SHALL MICROCHIP BE LIABLE FOR ANY DIRECT, INDIREC
      +                          T,
    59                           ; INCIDENTAL, SPECIAL, EXEMPLARY, OR CONSEQUENTIAL DAMAGES (INCLUDING BUT NOT LIMITED TO
    60                           ; PROCUREMENT OF SUBSTITUTE GOODS OR SERVICES; LOSS OF USE, DATA OR PROFITS; OR BUSINESS
    61                           ; INTERRUPTION) HOWSOEVER CAUSED AND ON ANY THEORY OF LIABILITY, WHETHER IN CONTRACT, ST
      +                          RICT
    62                           ; LIABILITY, OR TORT (INCLUDING NEGLIGENCE OR OTHERWISE) ARISING IN ANY WAY OUT OF THE U
      +                          SE OF
    63                           ; THIS SOFTWARE, EVEN IF ADVISED OF THE POSSIBILITY OF SUCH DAMAGE.
    64                           ; 
    65                           ; 
    66                           ; Code-generator required, PIC16LF15313 Definitions
    67                           ; 
    68                           ; SFR Addresses
    69     0000                     	;# 
    70     0001                     	;# 
    71     0002                     	;# 
    72     0003                     	;# 
    73     0004                     	;# 
    74     0005                     	;# 
    75     0006                     	;# 
    76     0007                     	;# 
    77     0008                     	;# 
    78     0009                     	;# 
    79     000A                     	;# 
    80     000B                     	;# 
    81     000C                     	;# 
    82     0012                     	;# 
    83     0018                     	;# 
    84     009B                     	;# 
    85     009B                     	;# 
    86     009C                     	;# 
    87     009D                     	;# 
    88     009E                     	;# 
    89     009F                     	;# 
    90     0119                     	;# 
    91     0119                     	;# 
    92     0119                     	;# 
    93     011A                     	;# 
    94     011A                     	;# 
    95     011A                     	;# 
    96     011B                     	;# 
    97     011B                     	;# 
    98     011B                     	;# 
    99     011B                     	;# 
   100     011B                     	;# 
   101     011C                     	;# 
   102     011C                     	;# 
   103     011C                     	;# 
   104     011D                     	;# 
   105     011D                     	;# 
   106     011D                     	;# 
   107     011E                     	;# 
   108     011E                     	;# 
   109     011E                     	;# 
   110     011F                     	;# 
   111     011F                     	;# 
   112     011F                     	;# 
   113     011F                     	;# 
   114     011F                     	;# 
   115     018C                     	;# 
   116     018D                     	;# 
   117     018E                     	;# 
   118     018F                     	;# 
   119     0190                     	;# 
   120     0191                     	;# 
   121     0192                     	;# 
   122     020C                     	;# 
   123     020C                     	;# 
   124     020D                     	;# 
   125     020E                     	;# 
   126     020F                     	;# 
   127     020F                     	;# 
   128     0210                     	;# 
   129     0210                     	;# 
   130     0211                     	;# 
   131     0211                     	;# 
   132     028C                     	;# 
   133     028C                     	;# 
   134     028D                     	;# 
   135     028D                     	;# 
   136     028E                     	;# 
   137     028F                     	;# 
   138     0290                     	;# 
   139     0291                     	;# 
   140     030C                     	;# 
   141     030C                     	;# 
   142     030D                     	;# 
   143     030E                     	;# 
   144     030F                     	;# 
   145     0310                     	;# 
   146     0310                     	;# 
   147     0311                     	;# 
   148     0312                     	;# 
   149     0313                     	;# 
   150     0314                     	;# 
   151     0314                     	;# 
   152     0315                     	;# 
   153     0316                     	;# 
   154     0318                     	;# 
   155     0318                     	;# 
   156     0319                     	;# 
   157     031A                     	;# 
   158     031C                     	;# 
   159     031C                     	;# 
   160     031D                     	;# 
   161     031E                     	;# 
   162     038C                     	;# 
   163     038C                     	;# 
   164     038D                     	;# 
   165     038E                     	;# 
   166     058C                     	;# 
   167     058C                     	;# 
   168     058D                     	;# 
   169     058E                     	;# 
   170     058F                     	;# 
   171     058F                     	;# 
   172     0590                     	;# 
   173     0591                     	;# 
   174     0592                     	;# 
   175     0593                     	;# 
   176     059C                     	;# 
   177     059C                     	;# 
   178     059D                     	;# 
   179     059D                     	;# 
   180     059E                     	;# 
   181     059F                     	;# 
   182     060C                     	;# 
   183     060D                     	;# 
   184     060E                     	;# 
   185     060F                     	;# 
   186     0610                     	;# 
   187     0611                     	;# 
   188     0612                     	;# 
   189     0613                     	;# 
   190     0614                     	;# 
   191     070C                     	;# 
   192     070D                     	;# 
   193     070E                     	;# 
   194     070F                     	;# 
   195     0710                     	;# 
   196     0711                     	;# 
   197     0712                     	;# 
   198     0713                     	;# 
   199     0716                     	;# 
   200     0717                     	;# 
   201     0718                     	;# 
   202     0719                     	;# 
   203     071A                     	;# 
   204     071B                     	;# 
   205     071C                     	;# 
   206     071D                     	;# 
   207     0796                     	;# 
   208     0797                     	;# 
   209     0798                     	;# 
   210     0799                     	;# 
   211     079A                     	;# 
   212     079B                     	;# 
   213     080C                     	;# 
   214     080D                     	;# 
   215     080E                     	;# 
   216     080F                     	;# 
   217     0810                     	;# 
   218     0811                     	;# 
   219     0813                     	;# 
   220     0814                     	;# 
   221     081A                     	;# 
   222     081A                     	;# 
   223     081B                     	;# 
   224     081C                     	;# 
   225     081C                     	;# 
   226     081D                     	;# 
   227     081E                     	;# 
   228     081F                     	;# 
   229     088C                     	;# 
   230     088D                     	;# 
   231     088E                     	;# 
   232     088F                     	;# 
   233     0890                     	;# 
   234     0891                     	;# 
   235     0892                     	;# 
   236     0893                     	;# 
   237     0895                     	;# 
   238     0896                     	;# 
   239     090C                     	;# 
   240     090E                     	;# 
   241     090F                     	;# 
   242     091F                     	;# 
   243     098F                     	;# 
   244     098F                     	;# 
   245     0990                     	;# 
   246     0991                     	;# 
   247     0992                     	;# 
   248     0993                     	;# 
   249     1E0F                     	;# 
   250     1E10                     	;# 
   251     1E11                     	;# 
   252     1E12                     	;# 
   253     1E13                     	;# 
   254     1E14                     	;# 
   255     1E15                     	;# 
   256     1E16                     	;# 
   257     1E17                     	;# 
   258     1E18                     	;# 
   259     1E19                     	;# 
   260     1E1A                     	;# 
   261     1E1B                     	;# 
   262     1E1C                     	;# 
   263     1E1D                     	;# 
   264     1E1E                     	;# 
   265     1E1F                     	;# 
   266     1E20                     	;# 
   267     1E21                     	;# 
   268     1E22                     	;# 
   269     1E23                     	;# 
   270     1E24                     	;# 
   271     1E25                     	;# 
   272     1E26                     	;# 
   273     1E27                     	;# 
   274     1E28                     	;# 
   275     1E29                     	;# 
   276     1E2A                     	;# 
   277     1E2B                     	;# 
   278     1E2C                     	;# 
   279     1E2D                     	;# 
   280     1E2E                     	;# 
   281     1E2F                     	;# 
   282     1E30                     	;# 
   283     1E31                     	;# 
   284     1E32                     	;# 
   285     1E33                     	;# 
   286     1E34                     	;# 
   287     1E35                     	;# 
   288     1E36                     	;# 
   289     1E37                     	;# 
   290     1E8F                     	;# 
   291     1E90                     	;# 
   292     1E91                     	;# 
   293     1E92                     	;# 
   294     1E93                     	;# 
   295     1E9C                     	;# 
   296     1EA1                     	;# 
   297     1EA2                     	;# 
   298     1EB1                     	;# 
   299     1EBB                     	;# 
   300     1EBC                     	;# 
   301     1EBD                     	;# 
   302     1EBE                     	;# 
   303     1EC3                     	;# 
   304     1EC5                     	;# 
   305     1EC6                     	;# 
   306     1EC7                     	;# 
   307     1ECB                     	;# 
   308     1ECC                     	;# 
   309     1F10                     	;# 
   310     1F11                     	;# 
   311     1F12                     	;# 
   312     1F13                     	;# 
   313     1F14                     	;# 
   314     1F15                     	;# 
   315     1F38                     	;# 
   316     1F39                     	;# 
   317     1F3A                     	;# 
   318     1F3B                     	;# 
   319     1F3C                     	;# 
   320     1F3D                     	;# 
   321     1F3E                     	;# 
   322     1F3F                     	;# 
   323     1FE4                     	;# 
   324     1FE5                     	;# 
   325     1FE6                     	;# 
   326     1FE7                     	;# 
   327     1FE8                     	;# 
   328     1FE8                     	;# 
   329     1FE9                     	;# 
   330     1FEA                     	;# 
   331     1FEA                     	;# 
   332     1FEB                     	;# 
   333     1FED                     	;# 
   334     1FEE                     	;# 
   335     1FEF                     	;# 
   336     0000                     	;# 
   337     0001                     	;# 
   338     0002                     	;# 
   339     0003                     	;# 
   340     0004                     	;# 
   341     0005                     	;# 
   342     0006                     	;# 
   343     0007                     	;# 
   344     0008                     	;# 
   345     0009                     	;# 
   346     000A                     	;# 
   347     000B                     	;# 
   348     000C                     	;# 
   349     0012                     	;# 
   350     0018                     	;# 
   351     009B                     	;# 
   352     009B                     	;# 
   353     009C                     	;# 
   354     009D                     	;# 
   355     009E                     	;# 
   356     009F                     	;# 
   357     0119                     	;# 
   358     0119                     	;# 
   359     0119                     	;# 
   360     011A                     	;# 
   361     011A                     	;# 
   362     011A                     	;# 
   363     011B                     	;# 
   364     011B                     	;# 
   365     011B                     	;# 
   366     011B                     	;# 
   367     011B                     	;# 
   368     011C                     	;# 
   369     011C                     	;# 
   370     011C                     	;# 
   371     011D                     	;# 
   372     011D                     	;# 
   373     011D                     	;# 
   374     011E                     	;# 
   375     011E                     	;# 
   376     011E                     	;# 
   377     011F                     	;# 
   378     011F                     	;# 
   379     011F                     	;# 
   380     011F                     	;# 
   381     011F                     	;# 
   382     018C                     	;# 
   383     018D                     	;# 
   384     018E                     	;# 
   385     018F                     	;# 
   386     0190                     	;# 
   387     0191                     	;# 
   388     0192                     	;# 
   389     020C                     	;# 
   390     020C                     	;# 
   391     020D                     	;# 
   392     020E                     	;# 
   393     020F                     	;# 
   394     020F                     	;# 
   395     0210                     	;# 
   396     0210                     	;# 
   397     0211                     	;# 
   398     0211                     	;# 
   399     028C                     	;# 
   400     028C                     	;# 
   401     028D                     	;# 
   402     028D                     	;# 
   403     028E                     	;# 
   404     028F                     	;# 
   405     0290                     	;# 
   406     0291                     	;# 
   407     030C                     	;# 
   408     030C                     	;# 
   409     030D                     	;# 
   410     030E                     	;# 
   411     030F                     	;# 
   412     0310                     	;# 
   413     0310                     	;# 
   414     0311                     	;# 
   415     0312                     	;# 
   416     0313                     	;# 
   417     0314                     	;# 
   418     0314                     	;# 
   419     0315                     	;# 
   420     0316                     	;# 
   421     0318                     	;# 
   422     0318                     	;# 
   423     0319                     	;# 
   424     031A                     	;# 
   425     031C                     	;# 
   426     031C                     	;# 
   427     031D                     	;# 
   428     031E                     	;# 
   429     038C                     	;# 
   430     038C                     	;# 
   431     038D                     	;# 
   432     038E                     	;# 
   433     058C                     	;# 
   434     058C                     	;# 
   435     058D                     	;# 
   436     058E                     	;# 
   437     058F                     	;# 
   438     058F                     	;# 
   439     0590                     	;# 
   440     0591                     	;# 
   441     0592                     	;# 
   442     0593                     	;# 
   443     059C                     	;# 
   444     059C                     	;# 
   445     059D                     	;# 
   446     059D                     	;# 
   447     059E                     	;# 
   448     059F                     	;# 
   449     060C                     	;# 
   450     060D                     	;# 
   451     060E                     	;# 
   452     060F                     	;# 
   453     0610                     	;# 
   454     0611                     	;# 
   455     0612                     	;# 
   456     0613                     	;# 
   457     0614                     	;# 
   458     070C                     	;# 
   459     070D                     	;# 
   460     070E                     	;# 
   461     070F                     	;# 
   462     0710                     	;# 
   463     0711                     	;# 
   464     0712                     	;# 
   465     0713                     	;# 
   466     0716                     	;# 
   467     0717                     	;# 
   468     0718                     	;# 
   469     0719                     	;# 
   470     071A                     	;# 
   471     071B                     	;# 
   472     071C                     	;# 
   473     071D                     	;# 
   474     0796                     	;# 
   475     0797                     	;# 
   476     0798                     	;# 
   477     0799                     	;# 
   478     079A                     	;# 
   479     079B                     	;# 
   480     080C                     	;# 
   481     080D                     	;# 
   482     080E                     	;# 
   483     080F                     	;# 
   484     0810                     	;# 
   485     0811                     	;# 
   486     0813                     	;# 
   487     0814                     	;# 
   488     081A                     	;# 
   489     081A                     	;# 
   490     081B                     	;# 
   491     081C                     	;# 
   492     081C                     	;# 
   493     081D                     	;# 
   494     081E                     	;# 
   495     081F                     	;# 
   496     088C                     	;# 
   497     088D                     	;# 
   498     088E                     	;# 
   499     088F                     	;# 
   500     0890                     	;# 
   501     0891                     	;# 
   502     0892                     	;# 
   503     0893                     	;# 
   504     0895                     	;# 
   505     0896                     	;# 
   506     090C                     	;# 
   507     090E                     	;# 
   508     090F                     	;# 
   509     091F                     	;# 
   510     098F                     	;# 
   511     098F                     	;# 
   512     0990                     	;# 
   513     0991                     	;# 
   514     0992                     	;# 
   515     0993                     	;# 
   516     1E0F                     	;# 
   517     1E10                     	;# 
   518     1E11                     	;# 
   519     1E12                     	;# 
   520     1E13                     	;# 
   521     1E14                     	;# 
   522     1E15                     	;# 
   523     1E16                     	;# 
   524     1E17                     	;# 
   525     1E18                     	;# 
   526     1E19                     	;# 
   527     1E1A                     	;# 
   528     1E1B                     	;# 
   529     1E1C                     	;# 
   530     1E1D                     	;# 
   531     1E1E                     	;# 
   532     1E1F                     	;# 
   533     1E20                     	;# 
   534     1E21                     	;# 
   535     1E22                     	;# 
   536     1E23                     	;# 
   537     1E24                     	;# 
   538     1E25                     	;# 
   539     1E26                     	;# 
   540     1E27                     	;# 
   541     1E28                     	;# 
   542     1E29                     	;# 
   543     1E2A                     	;# 
   544     1E2B                     	;# 
   545     1E2C                     	;# 
   546     1E2D                     	;# 
   547     1E2E                     	;# 
   548     1E2F                     	;# 
   549     1E30                     	;# 
   550     1E31                     	;# 
   551     1E32                     	;# 
   552     1E33                     	;# 
   553     1E34                     	;# 
   554     1E35                     	;# 
   555     1E36                     	;# 
   556     1E37                     	;# 
   557     1E8F                     	;# 
   558     1E90                     	;# 
   559     1E91                     	;# 
   560     1E92                     	;# 
   561     1E93                     	;# 
   562     1E9C                     	;# 
   563     1EA1                     	;# 
   564     1EA2                     	;# 
   565     1EB1                     	;# 
   566     1EBB                     	;# 
   567     1EBC                     	;# 
   568     1EBD                     	;# 
   569     1EBE                     	;# 
   570     1EC3                     	;# 
   571     1EC5                     	;# 
   572     1EC6                     	;# 
   573     1EC7                     	;# 
   574     1ECB                     	;# 
   575     1ECC                     	;# 
   576     1F10                     	;# 
   577     1F11                     	;# 
   578     1F12                     	;# 
   579     1F13                     	;# 
   580     1F14                     	;# 
   581     1F15                     	;# 
   582     1F38                     	;# 
   583     1F39                     	;# 
   584     1F3A                     	;# 
   585     1F3B                     	;# 
   586     1F3C                     	;# 
   587     1F3D                     	;# 
   588     1F3E                     	;# 
   589     1F3F                     	;# 
   590     1FE4                     	;# 
   591     1FE5                     	;# 
   592     1FE6                     	;# 
   593     1FE7                     	;# 
   594     1FE8                     	;# 
   595     1FE8                     	;# 
   596     1FE9                     	;# 
   597     1FEA                     	;# 
   598     1FEA                     	;# 
   599     1FEB                     	;# 
   600     1FED                     	;# 
   601     1FEE                     	;# 
   602     1FEF                     	;# 
   603     0000                     	;# 
   604     0001                     	;# 
   605     0002                     	;# 
   606     0003                     	;# 
   607     0004                     	;# 
   608     0005                     	;# 
   609     0006                     	;# 
   610     0007                     	;# 
   611     0008                     	;# 
   612     0009                     	;# 
   613     000A                     	;# 
   614     000B                     	;# 
   615     000C                     	;# 
   616     0012                     	;# 
   617     0018                     	;# 
   618     009B                     	;# 
   619     009B                     	;# 
   620     009C                     	;# 
   621     009D                     	;# 
   622     009E                     	;# 
   623     009F                     	;# 
   624     0119                     	;# 
   625     0119                     	;# 
   626     0119                     	;# 
   627     011A                     	;# 
   628     011A                     	;# 
   629     011A                     	;# 
   630     011B                     	;# 
   631     011B                     	;# 
   632     011B                     	;# 
   633     011B                     	;# 
   634     011B                     	;# 
   635     011C                     	;# 
   636     011C                     	;# 
   637     011C                     	;# 
   638     011D                     	;# 
   639     011D                     	;# 
   640     011D                     	;# 
   641     011E                     	;# 
   642     011E                     	;# 
   643     011E                     	;# 
   644     011F                     	;# 
   645     011F                     	;# 
   646     011F                     	;# 
   647     011F                     	;# 
   648     011F                     	;# 
   649     018C                     	;# 
   650     018D                     	;# 
   651     018E                     	;# 
   652     018F                     	;# 
   653     0190                     	;# 
   654     0191                     	;# 
   655     0192                     	;# 
   656     020C                     	;# 
   657     020C                     	;# 
   658     020D                     	;# 
   659     020E                     	;# 
   660     020F                     	;# 
   661     020F                     	;# 
   662     0210                     	;# 
   663     0210                     	;# 
   664     0211                     	;# 
   665     0211                     	;# 
   666     028C                     	;# 
   667     028C                     	;# 
   668     028D                     	;# 
   669     028D                     	;# 
   670     028E                     	;# 
   671     028F                     	;# 
   672     0290                     	;# 
   673     0291                     	;# 
   674     030C                     	;# 
   675     030C                     	;# 
   676     030D                     	;# 
   677     030E                     	;# 
   678     030F                     	;# 
   679     0310                     	;# 
   680     0310                     	;# 
   681     0311                     	;# 
   682     0312                     	;# 
   683     0313                     	;# 
   684     0314                     	;# 
   685     0314                     	;# 
   686     0315                     	;# 
   687     0316                     	;# 
   688     0318                     	;# 
   689     0318                     	;# 
   690     0319                     	;# 
   691     031A                     	;# 
   692     031C                     	;# 
   693     031C                     	;# 
   694     031D                     	;# 
   695     031E                     	;# 
   696     038C                     	;# 
   697     038C                     	;# 
   698     038D                     	;# 
   699     038E                     	;# 
   700     058C                     	;# 
   701     058C                     	;# 
   702     058D                     	;# 
   703     058E                     	;# 
   704     058F                     	;# 
   705     058F                     	;# 
   706     0590                     	;# 
   707     0591                     	;# 
   708     0592                     	;# 
   709     0593                     	;# 
   710     059C                     	;# 
   711     059C                     	;# 
   712     059D                     	;# 
   713     059D                     	;# 
   714     059E                     	;# 
   715     059F                     	;# 
   716     060C                     	;# 
   717     060D                     	;# 
   718     060E                     	;# 
   719     060F                     	;# 
   720     0610                     	;# 
   721     0611                     	;# 
   722     0612                     	;# 
   723     0613                     	;# 
   724     0614                     	;# 
   725     070C                     	;# 
   726     070D                     	;# 
   727     070E                     	;# 
   728     070F                     	;# 
   729     0710                     	;# 
   730     0711                     	;# 
   731     0712                     	;# 
   732     0713                     	;# 
   733     0716                     	;# 
   734     0717                     	;# 
   735     0718                     	;# 
   736     0719                     	;# 
   737     071A                     	;# 
   738     071B                     	;# 
   739     071C                     	;# 
   740     071D                     	;# 
   741     0796                     	;# 
   742     0797                     	;# 
   743     0798                     	;# 
   744     0799                     	;# 
   745     079A                     	;# 
   746     079B                     	;# 
   747     080C                     	;# 
   748     080D                     	;# 
   749     080E                     	;# 
   750     080F                     	;# 
   751     0810                     	;# 
   752     0811                     	;# 
   753     0813                     	;# 
   754     0814                     	;# 
   755     081A                     	;# 
   756     081A                     	;# 
   757     081B                     	;# 
   758     081C                     	;# 
   759     081C                     	;# 
   760     081D                     	;# 
   761     081E                     	;# 
   762     081F                     	;# 
   763     088C                     	;# 
   764     088D                     	;# 
   765     088E                     	;# 
   766     088F                     	;# 
   767     0890                     	;# 
   768     0891                     	;# 
   769     0892                     	;# 
   770     0893                     	;# 
   771     0895                     	;# 
   772     0896                     	;# 
   773     090C                     	;# 
   774     090E                     	;# 
   775     090F                     	;# 
   776     091F                     	;# 
   777     098F                     	;# 
   778     098F                     	;# 
   779     0990                     	;# 
   780     0991                     	;# 
   781     0992                     	;# 
   782     0993                     	;# 
   783     1E0F                     	;# 
   784     1E10                     	;# 
   785     1E11                     	;# 
   786     1E12                     	;# 
   787     1E13                     	;# 
   788     1E14                     	;# 
   789     1E15                     	;# 
   790     1E16                     	;# 
   791     1E17                     	;# 
   792     1E18                     	;# 
   793     1E19                     	;# 
   794     1E1A                     	;# 
   795     1E1B                     	;# 
   796     1E1C                     	;# 
   797     1E1D                     	;# 
   798     1E1E                     	;# 
   799     1E1F                     	;# 
   800     1E20                     	;# 
   801     1E21                     	;# 
   802     1E22                     	;# 
   803     1E23                     	;# 
   804     1E24                     	;# 
   805     1E25                     	;# 
   806     1E26                     	;# 
   807     1E27                     	;# 
   808     1E28                     	;# 
   809     1E29                     	;# 
   810     1E2A                     	;# 
   811     1E2B                     	;# 
   812     1E2C                     	;# 
   813     1E2D                     	;# 
   814     1E2E                     	;# 
   815     1E2F                     	;# 
   816     1E30                     	;# 
   817     1E31                     	;# 
   818     1E32                     	;# 
   819     1E33                     	;# 
   820     1E34                     	;# 
   821     1E35                     	;# 
   822     1E36                     	;# 
   823     1E37                     	;# 
   824     1E8F                     	;# 
   825     1E90                     	;# 
   826     1E91                     	;# 
   827     1E92                     	;# 
   828     1E93                     	;# 
   829     1E9C                     	;# 
   830     1EA1                     	;# 
   831     1EA2                     	;# 
   832     1EB1                     	;# 
   833     1EBB                     	;# 
   834     1EBC                     	;# 
   835     1EBD                     	;# 
   836     1EBE                     	;# 
   837     1EC3                     	;# 
   838     1EC5                     	;# 
   839     1EC6                     	;# 
   840     1EC7                     	;# 
   841     1ECB                     	;# 
   842     1ECC                     	;# 
   843     1F10                     	;# 
   844     1F11                     	;# 
   845     1F12                     	;# 
   846     1F13                     	;# 
   847     1F14                     	;# 
   848     1F15                     	;# 
   849     1F38                     	;# 
   850     1F39                     	;# 
   851     1F3A                     	;# 
   852     1F3B                     	;# 
   853     1F3C                     	;# 
   854     1F3D                     	;# 
   855     1F3E                     	;# 
   856     1F3F                     	;# 
   857     1FE4                     	;# 
   858     1FE5                     	;# 
   859     1FE6                     	;# 
   860     1FE7                     	;# 
   861     1FE8                     	;# 
   862     1FE8                     	;# 
   863     1FE9                     	;# 
   864     1FEA                     	;# 
   865     1FEA                     	;# 
   866     1FEB                     	;# 
   867     1FED                     	;# 
   868     1FEE                     	;# 
   869     1FEF                     	;# 
   870     0000                     	;# 
   871     0001                     	;# 
   872     0002                     	;# 
   873     0003                     	;# 
   874     0004                     	;# 
   875     0005                     	;# 
   876     0006                     	;# 
   877     0007                     	;# 
   878     0008                     	;# 
   879     0009                     	;# 
   880     000A                     	;# 
   881     000B                     	;# 
   882     000C                     	;# 
   883     0012                     	;# 
   884     0018                     	;# 
   885     009B                     	;# 
   886     009B                     	;# 
   887     009C                     	;# 
   888     009D                     	;# 
   889     009E                     	;# 
   890     009F                     	;# 
   891     0119                     	;# 
   892     0119                     	;# 
   893     0119                     	;# 
   894     011A                     	;# 
   895     011A                     	;# 
   896     011A                     	;# 
   897     011B                     	;# 
   898     011B                     	;# 
   899     011B                     	;# 
   900     011B                     	;# 
   901     011B                     	;# 
   902     011C                     	;# 
   903     011C                     	;# 
   904     011C                     	;# 
   905     011D                     	;# 
   906     011D                     	;# 
   907     011D                     	;# 
   908     011E                     	;# 
   909     011E                     	;# 
   910     011E                     	;# 
   911     011F                     	;# 
   912     011F                     	;# 
   913     011F                     	;# 
   914     011F                     	;# 
   915     011F                     	;# 
   916     018C                     	;# 
   917     018D                     	;# 
   918     018E                     	;# 
   919     018F                     	;# 
   920     0190                     	;# 
   921     0191                     	;# 
   922     0192                     	;# 
   923     020C                     	;# 
   924     020C                     	;# 
   925     020D                     	;# 
   926     020E                     	;# 
   927     020F                     	;# 
   928     020F                     	;# 
   929     0210                     	;# 
   930     0210                     	;# 
   931     0211                     	;# 
   932     0211                     	;# 
   933     028C                     	;# 
   934     028C                     	;# 
   935     028D                     	;# 
   936     028D                     	;# 
   937     028E                     	;# 
   938     028F                     	;# 
   939     0290                     	;# 
   940     0291                     	;# 
   941     030C                     	;# 
   942     030C                     	;# 
   943     030D                     	;# 
   944     030E                     	;# 
   945     030F                     	;# 
   946     0310                     	;# 
   947     0310                     	;# 
   948     0311                     	;# 
   949     0312                     	;# 
   950     0313                     	;# 
   951     0314                     	;# 
   952     0314                     	;# 
   953     0315                     	;# 
   954     0316                     	;# 
   955     0318                     	;# 
   956     0318                     	;# 
   957     0319                     	;# 
   958     031A                     	;# 
   959     031C                     	;# 
   960     031C                     	;# 
   961     031D                     	;# 
   962     031E                     	;# 
   963     038C                     	;# 
   964     038C                     	;# 
   965     038D                     	;# 
   966     038E                     	;# 
   967     058C                     	;# 
   968     058C                     	;# 
   969     058D                     	;# 
   970     058E                     	;# 
   971     058F                     	;# 
   972     058F                     	;# 
   973     0590                     	;# 
   974     0591                     	;# 
   975     0592                     	;# 
   976     0593                     	;# 
   977     059C                     	;# 
   978     059C                     	;# 
   979     059D                     	;# 
   980     059D                     	;# 
   981     059E                     	;# 
   982     059F                     	;# 
   983     060C                     	;# 
   984     060D                     	;# 
   985     060E                     	;# 
   986     060F                     	;# 
   987     0610                     	;# 
   988     0611                     	;# 
   989     0612                     	;# 
   990     0613                     	;# 
   991     0614                     	;# 
   992     070C                     	;# 
   993     070D                     	;# 
   994     070E                     	;# 
   995     070F                     	;# 
   996     0710                     	;# 
   997     0711                     	;# 
   998     0712                     	;# 
   999     0713                     	;# 
  1000     0716                     	;# 
  1001     0717                     	;# 
  1002     0718                     	;# 
  1003     0719                     	;# 
  1004     071A                     	;# 
  1005     071B                     	;# 
  1006     071C                     	;# 
  1007     071D                     	;# 
  1008     0796                     	;# 
  1009     0797                     	;# 
  1010     0798                     	;# 
  1011     0799                     	;# 
  1012     079A                     	;# 
  1013     079B                     	;# 
  1014     080C                     	;# 
  1015     080D                     	;# 
  1016     080E                     	;# 
  1017     080F                     	;# 
  1018     0810                     	;# 
  1019     0811                     	;# 
  1020     0813                     	;# 
  1021     0814                     	;# 
  1022     081A                     	;# 
  1023     081A                     	;# 
  1024     081B                     	;# 
  1025     081C                     	;# 
  1026     081C                     	;# 
  1027     081D                     	;# 
  1028     081E                     	;# 
  1029     081F                     	;# 
  1030     088C                     	;# 
  1031     088D                     	;# 
  1032     088E                     	;# 
  1033     088F                     	;# 
  1034     0890                     	;# 
  1035     0891                     	;# 
  1036     0892                     	;# 
  1037     0893                     	;# 
  1038     0895                     	;# 
  1039     0896                     	;# 
  1040     090C                     	;# 
  1041     090E                     	;# 
  1042     090F                     	;# 
  1043     091F                     	;# 
  1044     098F                     	;# 
  1045     098F                     	;# 
  1046     0990                     	;# 
  1047     0991                     	;# 
  1048     0992                     	;# 
  1049     0993                     	;# 
  1050     1E0F                     	;# 
  1051     1E10                     	;# 
  1052     1E11                     	;# 
  1053     1E12                     	;# 
  1054     1E13                     	;# 
  1055     1E14                     	;# 
  1056     1E15                     	;# 
  1057     1E16                     	;# 
  1058     1E17                     	;# 
  1059     1E18                     	;# 
  1060     1E19                     	;# 
  1061     1E1A                     	;# 
  1062     1E1B                     	;# 
  1063     1E1C                     	;# 
  1064     1E1D                     	;# 
  1065     1E1E                     	;# 
  1066     1E1F                     	;# 
  1067     1E20                     	;# 
  1068     1E21                     	;# 
  1069     1E22                     	;# 
  1070     1E23                     	;# 
  1071     1E24                     	;# 
  1072     1E25                     	;# 
  1073     1E26                     	;# 
  1074     1E27                     	;# 
  1075     1E28                     	;# 
  1076     1E29                     	;# 
  1077     1E2A                     	;# 
  1078     1E2B                     	;# 
  1079     1E2C                     	;# 
  1080     1E2D                     	;# 
  1081     1E2E                     	;# 
  1082     1E2F                     	;# 
  1083     1E30                     	;# 
  1084     1E31                     	;# 
  1085     1E32                     	;# 
  1086     1E33                     	;# 
  1087     1E34                     	;# 
  1088     1E35                     	;# 
  1089     1E36                     	;# 
  1090     1E37                     	;# 
  1091     1E8F                     	;# 
  1092     1E90                     	;# 
  1093     1E91                     	;# 
  1094     1E92                     	;# 
  1095     1E93                     	;# 
  1096     1E9C                     	;# 
  1097     1EA1                     	;# 
  1098     1EA2                     	;# 
  1099     1EB1                     	;# 
  1100     1EBB                     	;# 
  1101     1EBC                     	;# 
  1102     1EBD                     	;# 
  1103     1EBE                     	;# 
  1104     1EC3                     	;# 
  1105     1EC5                     	;# 
  1106     1EC6                     	;# 
  1107     1EC7                     	;# 
  1108     1ECB                     	;# 
  1109     1ECC                     	;# 
  1110     1F10                     	;# 
  1111     1F11                     	;# 
  1112     1F12                     	;# 
  1113     1F13                     	;# 
  1114     1F14                     	;# 
  1115     1F15                     	;# 
  1116     1F38                     	;# 
  1117     1F39                     	;# 
  1118     1F3A                     	;# 
  1119     1F3B                     	;# 
  1120     1F3C                     	;# 
  1121     1F3D                     	;# 
  1122     1F3E                     	;# 
  1123     1F3F                     	;# 
  1124     1FE4                     	;# 
  1125     1FE5                     	;# 
  1126     1FE6                     	;# 
  1127     1FE7                     	;# 
  1128     1FE8                     	;# 
  1129     1FE8                     	;# 
  1130     1FE9                     	;# 
  1131     1FEA                     	;# 
  1132     1FEA                     	;# 
  1133     1FEB                     	;# 
  1134     1FED                     	;# 
  1135     1FEE                     	;# 
  1136     1FEF                     	;# 
  1137     0000                     	;# 
  1138     0001                     	;# 
  1139     0002                     	;# 
  1140     0003                     	;# 
  1141     0004                     	;# 
  1142     0005                     	;# 
  1143     0006                     	;# 
  1144     0007                     	;# 
  1145     0008                     	;# 
  1146     0009                     	;# 
  1147     000A                     	;# 
  1148     000B                     	;# 
  1149     000C                     	;# 
  1150     0012                     	;# 
  1151     0018                     	;# 
  1152     009B                     	;# 
  1153     009B                     	;# 
  1154     009C                     	;# 
  1155     009D                     	;# 
  1156     009E                     	;# 
  1157     009F                     	;# 
  1158     0119                     	;# 
  1159     0119                     	;# 
  1160     0119                     	;# 
  1161     011A                     	;# 
  1162     011A                     	;# 
  1163     011A                     	;# 
  1164     011B                     	;# 
  1165     011B                     	;# 
  1166     011B                     	;# 
  1167     011B                     	;# 
  1168     011B                     	;# 
  1169     011C                     	;# 
  1170     011C                     	;# 
  1171     011C                     	;# 
  1172     011D                     	;# 
  1173     011D                     	;# 
  1174     011D                     	;# 
  1175     011E                     	;# 
  1176     011E                     	;# 
  1177     011E                     	;# 
  1178     011F                     	;# 
  1179     011F                     	;# 
  1180     011F                     	;# 
  1181     011F                     	;# 
  1182     011F                     	;# 
  1183     018C                     	;# 
  1184     018D                     	;# 
  1185     018E                     	;# 
  1186     018F                     	;# 
  1187     0190                     	;# 
  1188     0191                     	;# 
  1189     0192                     	;# 
  1190     020C                     	;# 
  1191     020C                     	;# 
  1192     020D                     	;# 
  1193     020E                     	;# 
  1194     020F                     	;# 
  1195     020F                     	;# 
  1196     0210                     	;# 
  1197     0210                     	;# 
  1198     0211                     	;# 
  1199     0211                     	;# 
  1200     028C                     	;# 
  1201     028C                     	;# 
  1202     028D                     	;# 
  1203     028D                     	;# 
  1204     028E                     	;# 
  1205     028F                     	;# 
  1206     0290                     	;# 
  1207     0291                     	;# 
  1208     030C                     	;# 
  1209     030C                     	;# 
  1210     030D                     	;# 
  1211     030E                     	;# 
  1212     030F                     	;# 
  1213     0310                     	;# 
  1214     0310                     	;# 
  1215     0311                     	;# 
  1216     0312                     	;# 
  1217     0313                     	;# 
  1218     0314                     	;# 
  1219     0314                     	;# 
  1220     0315                     	;# 
  1221     0316                     	;# 
  1222     0318                     	;# 
  1223     0318                     	;# 
  1224     0319                     	;# 
  1225     031A                     	;# 
  1226     031C                     	;# 
  1227     031C                     	;# 
  1228     031D                     	;# 
  1229     031E                     	;# 
  1230     038C                     	;# 
  1231     038C                     	;# 
  1232     038D                     	;# 
  1233     038E                     	;# 
  1234     058C                     	;# 
  1235     058C                     	;# 
  1236     058D                     	;# 
  1237     058E                     	;# 
  1238     058F                     	;# 
  1239     058F                     	;# 
  1240     0590                     	;# 
  1241     0591                     	;# 
  1242     0592                     	;# 
  1243     0593                     	;# 
  1244     059C                     	;# 
  1245     059C                     	;# 
  1246     059D                     	;# 
  1247     059D                     	;# 
  1248     059E                     	;# 
  1249     059F                     	;# 
  1250     060C                     	;# 
  1251     060D                     	;# 
  1252     060E                     	;# 
  1253     060F                     	;# 
  1254     0610                     	;# 
  1255     0611                     	;# 
  1256     0612                     	;# 
  1257     0613                     	;# 
  1258     0614                     	;# 
  1259     070C                     	;# 
  1260     070D                     	;# 
  1261     070E                     	;# 
  1262     070F                     	;# 
  1263     0710                     	;# 
  1264     0711                     	;# 
  1265     0712                     	;# 
  1266     0713                     	;# 
  1267     0716                     	;# 
  1268     0717                     	;# 
  1269     0718                     	;# 
  1270     0719                     	;# 
  1271     071A                     	;# 
  1272     071B                     	;# 
  1273     071C                     	;# 
  1274     071D                     	;# 
  1275     0796                     	;# 
  1276     0797                     	;# 
  1277     0798                     	;# 
  1278     0799                     	;# 
  1279     079A                     	;# 
  1280     079B                     	;# 
  1281     080C                     	;# 
  1282     080D                     	;# 
  1283     080E                     	;# 
  1284     080F                     	;# 
  1285     0810                     	;# 
  1286     0811                     	;# 
  1287     0813                     	;# 
  1288     0814                     	;# 
  1289     081A                     	;# 
  1290     081A                     	;# 
  1291     081B                     	;# 
  1292     081C                     	;# 
  1293     081C                     	;# 
  1294     081D                     	;# 
  1295     081E                     	;# 
  1296     081F                     	;# 
  1297     088C                     	;# 
  1298     088D                     	;# 
  1299     088E                     	;# 
  1300     088F                     	;# 
  1301     0890                     	;# 
  1302     0891                     	;# 
  1303     0892                     	;# 
  1304     0893                     	;# 
  1305     0895                     	;# 
  1306     0896                     	;# 
  1307     090C                     	;# 
  1308     090E                     	;# 
  1309     090F                     	;# 
  1310     091F                     	;# 
  1311     098F                     	;# 
  1312     098F                     	;# 
  1313     0990                     	;# 
  1314     0991                     	;# 
  1315     0992                     	;# 
  1316     0993                     	;# 
  1317     1E0F                     	;# 
  1318     1E10                     	;# 
  1319     1E11                     	;# 
  1320     1E12                     	;# 
  1321     1E13                     	;# 
  1322     1E14                     	;# 
  1323     1E15                     	;# 
  1324     1E16                     	;# 
  1325     1E17                     	;# 
  1326     1E18                     	;# 
  1327     1E19                     	;# 
  1328     1E1A                     	;# 
  1329     1E1B                     	;# 
  1330     1E1C                     	;# 
  1331     1E1D                     	;# 
  1332     1E1E                     	;# 
  1333     1E1F                     	;# 
  1334     1E20                     	;# 
  1335     1E21                     	;# 
  1336     1E22                     	;# 
  1337     1E23                     	;# 
  1338     1E24                     	;# 
  1339     1E25                     	;# 
  1340     1E26                     	;# 
  1341     1E27                     	;# 
  1342     1E28                     	;# 
  1343     1E29                     	;# 
  1344     1E2A                     	;# 
  1345     1E2B                     	;# 
  1346     1E2C                     	;# 
  1347     1E2D                     	;# 
  1348     1E2E                     	;# 
  1349     1E2F                     	;# 
  1350     1E30                     	;# 
  1351     1E31                     	;# 
  1352     1E32                     	;# 
  1353     1E33                     	;# 
  1354     1E34                     	;# 
  1355     1E35                     	;# 
  1356     1E36                     	;# 
  1357     1E37                     	;# 
  1358     1E8F                     	;# 
  1359     1E90                     	;# 
  1360     1E91                     	;# 
  1361     1E92                     	;# 
  1362     1E93                     	;# 
  1363     1E9C                     	;# 
  1364     1EA1                     	;# 
  1365     1EA2                     	;# 
  1366     1EB1                     	;# 
  1367     1EBB                     	;# 
  1368     1EBC                     	;# 
  1369     1EBD                     	;# 
  1370     1EBE                     	;# 
  1371     1EC3                     	;# 
  1372     1EC5                     	;# 
  1373     1EC6                     	;# 
  1374     1EC7                     	;# 
  1375     1ECB                     	;# 
  1376     1ECC                     	;# 
  1377     1F10                     	;# 
  1378     1F11                     	;# 
  1379     1F12                     	;# 
  1380     1F13                     	;# 
  1381     1F14                     	;# 
  1382     1F15                     	;# 
  1383     1F38                     	;# 
  1384     1F39                     	;# 
  1385     1F3A                     	;# 
  1386     1F3B                     	;# 
  1387     1F3C                     	;# 
  1388     1F3D                     	;# 
  1389     1F3E                     	;# 
  1390     1F3F                     	;# 
  1391     1FE4                     	;# 
  1392     1FE5                     	;# 
  1393     1FE6                     	;# 
  1394     1FE7                     	;# 
  1395     1FE8                     	;# 
  1396     1FE8                     	;# 
  1397     1FE9                     	;# 
  1398     1FEA                     	;# 
  1399     1FEA                     	;# 
  1400     1FEB                     	;# 
  1401     1FED                     	;# 
  1402     1FEE                     	;# 
  1403     1FEF                     	;# 
  1404     0000                     	;# 
  1405     0001                     	;# 
  1406     0002                     	;# 
  1407     0003                     	;# 
  1408     0004                     	;# 
  1409     0005                     	;# 
  1410     0006                     	;# 
  1411     0007                     	;# 
  1412     0008                     	;# 
  1413     0009                     	;# 
  1414     000A                     	;# 
  1415     000B                     	;# 
  1416     000C                     	;# 
  1417     0012                     	;# 
  1418     0018                     	;# 
  1419     009B                     	;# 
  1420     009B                     	;# 
  1421     009C                     	;# 
  1422     009D                     	;# 
  1423     009E                     	;# 
  1424     009F                     	;# 
  1425     0119                     	;# 
  1426     0119                     	;# 
  1427     0119                     	;# 
  1428     011A                     	;# 
  1429     011A                     	;# 
  1430     011A                     	;# 
  1431     011B                     	;# 
  1432     011B                     	;# 
  1433     011B                     	;# 
  1434     011B                     	;# 
  1435     011B                     	;# 
  1436     011C                     	;# 
  1437     011C                     	;# 
  1438     011C                     	;# 
  1439     011D                     	;# 
  1440     011D                     	;# 
  1441     011D                     	;# 
  1442     011E                     	;# 
  1443     011E                     	;# 
  1444     011E                     	;# 
  1445     011F                     	;# 
  1446     011F                     	;# 
  1447     011F                     	;# 
  1448     011F                     	;# 
  1449     011F                     	;# 
  1450     018C                     	;# 
  1451     018D                     	;# 
  1452     018E                     	;# 
  1453     018F                     	;# 
  1454     0190                     	;# 
  1455     0191                     	;# 
  1456     0192                     	;# 
  1457     020C                     	;# 
  1458     020C                     	;# 
  1459     020D                     	;# 
  1460     020E                     	;# 
  1461     020F                     	;# 
  1462     020F                     	;# 
  1463     0210                     	;# 
  1464     0210                     	;# 
  1465     0211                     	;# 
  1466     0211                     	;# 
  1467     028C                     	;# 
  1468     028C                     	;# 
  1469     028D                     	;# 
  1470     028D                     	;# 
  1471     028E                     	;# 
  1472     028F                     	;# 
  1473     0290                     	;# 
  1474     0291                     	;# 
  1475     030C                     	;# 
  1476     030C                     	;# 
  1477     030D                     	;# 
  1478     030E                     	;# 
  1479     030F                     	;# 
  1480     0310                     	;# 
  1481     0310                     	;# 
  1482     0311                     	;# 
  1483     0312                     	;# 
  1484     0313                     	;# 
  1485     0314                     	;# 
  1486     0314                     	;# 
  1487     0315                     	;# 
  1488     0316                     	;# 
  1489     0318                     	;# 
  1490     0318                     	;# 
  1491     0319                     	;# 
  1492     031A                     	;# 
  1493     031C                     	;# 
  1494     031C                     	;# 
  1495     031D                     	;# 
  1496     031E                     	;# 
  1497     038C                     	;# 
  1498     038C                     	;# 
  1499     038D                     	;# 
  1500     038E                     	;# 
  1501     058C                     	;# 
  1502     058C                     	;# 
  1503     058D                     	;# 
  1504     058E                     	;# 
  1505     058F                     	;# 
  1506     058F                     	;# 
  1507     0590                     	;# 
  1508     0591                     	;# 
  1509     0592                     	;# 
  1510     0593                     	;# 
  1511     059C                     	;# 
  1512     059C                     	;# 
  1513     059D                     	;# 
  1514     059D                     	;# 
  1515     059E                     	;# 
  1516     059F                     	;# 
  1517     060C                     	;# 
  1518     060D                     	;# 
  1519     060E                     	;# 
  1520     060F                     	;# 
  1521     0610                     	;# 
  1522     0611                     	;# 
  1523     0612                     	;# 
  1524     0613                     	;# 
  1525     0614                     	;# 
  1526     070C                     	;# 
  1527     070D                     	;# 
  1528     070E                     	;# 
  1529     070F                     	;# 
  1530     0710                     	;# 
  1531     0711                     	;# 
  1532     0712                     	;# 
  1533     0713                     	;# 
  1534     0716                     	;# 
  1535     0717                     	;# 
  1536     0718                     	;# 
  1537     0719                     	;# 
  1538     071A                     	;# 
  1539     071B                     	;# 
  1540     071C                     	;# 
  1541     071D                     	;# 
  1542     0796                     	;# 
  1543     0797                     	;# 
  1544     0798                     	;# 
  1545     0799                     	;# 
  1546     079A                     	;# 
  1547     079B                     	;# 
  1548     080C                     	;# 
  1549     080D                     	;# 
  1550     080E                     	;# 
  1551     080F                     	;# 
  1552     0810                     	;# 
  1553     0811                     	;# 
  1554     0813                     	;# 
  1555     0814                     	;# 
  1556     081A                     	;# 
  1557     081A                     	;# 
  1558     081B                     	;# 
  1559     081C                     	;# 
  1560     081C                     	;# 
  1561     081D                     	;# 
  1562     081E                     	;# 
  1563     081F                     	;# 
  1564     088C                     	;# 
  1565     088D                     	;# 
  1566     088E                     	;# 
  1567     088F                     	;# 
  1568     0890                     	;# 
  1569     0891                     	;# 
  1570     0892                     	;# 
  1571     0893                     	;# 
  1572     0895                     	;# 
  1573     0896                     	;# 
  1574     090C                     	;# 
  1575     090E                     	;# 
  1576     090F                     	;# 
  1577     091F                     	;# 
  1578     098F                     	;# 
  1579     098F                     	;# 
  1580     0990                     	;# 
  1581     0991                     	;# 
  1582     0992                     	;# 
  1583     0993                     	;# 
  1584     1E0F                     	;# 
  1585     1E10                     	;# 
  1586     1E11                     	;# 
  1587     1E12                     	;# 
  1588     1E13                     	;# 
  1589     1E14                     	;# 
  1590     1E15                     	;# 
  1591     1E16                     	;# 
  1592     1E17                     	;# 
  1593     1E18                     	;# 
  1594     1E19                     	;# 
  1595     1E1A                     	;# 
  1596     1E1B                     	;# 
  1597     1E1C                     	;# 
  1598     1E1D                     	;# 
  1599     1E1E                     	;# 
  1600     1E1F                     	;# 
  1601     1E20                     	;# 
  1602     1E21                     	;# 
  1603     1E22                     	;# 
  1604     1E23                     	;# 
  1605     1E24                     	;# 
  1606     1E25                     	;# 
  1607     1E26                     	;# 
  1608     1E27                     	;# 
  1609     1E28                     	;# 
  1610     1E29                     	;# 
  1611     1E2A                     	;# 
  1612     1E2B                     	;# 
  1613     1E2C                     	;# 
  1614     1E2D                     	;# 
  1615     1E2E                     	;# 
  1616     1E2F                     	;# 
  1617     1E30                     	;# 
  1618     1E31                     	;# 
  1619     1E32                     	;# 
  1620     1E33                     	;# 
  1621     1E34                     	;# 
  1622     1E35                     	;# 
  1623     1E36                     	;# 
  1624     1E37                     	;# 
  1625     1E8F                     	;# 
  1626     1E90                     	;# 
  1627     1E91                     	;# 
  1628     1E92                     	;# 
  1629     1E93                     	;# 
  1630     1E9C                     	;# 
  1631     1EA1                     	;# 
  1632     1EA2                     	;# 
  1633     1EB1                     	;# 
  1634     1EBB                     	;# 
  1635     1EBC                     	;# 
  1636     1EBD                     	;# 
  1637     1EBE                     	;# 
  1638     1EC3                     	;# 
  1639     1EC5                     	;# 
  1640     1EC6                     	;# 
  1641     1EC7                     	;# 
  1642     1ECB                     	;# 
  1643     1ECC                     	;# 
  1644     1F10                     	;# 
  1645     1F11                     	;# 
  1646     1F12                     	;# 
  1647     1F13                     	;# 
  1648     1F14                     	;# 
  1649     1F15                     	;# 
  1650     1F38                     	;# 
  1651     1F39                     	;# 
  1652     1F3A                     	;# 
  1653     1F3B                     	;# 
  1654     1F3C                     	;# 
  1655     1F3D                     	;# 
  1656     1F3E                     	;# 
  1657     1F3F                     	;# 
  1658     1FE4                     	;# 
  1659     1FE5                     	;# 
  1660     1FE6                     	;# 
  1661     1FE7                     	;# 
  1662     1FE8                     	;# 
  1663     1FE8                     	;# 
  1664     1FE9                     	;# 
  1665     1FEA                     	;# 
  1666     1FEA                     	;# 
  1667     1FEB                     	;# 
  1668     1FED                     	;# 
  1669     1FEE                     	;# 
  1670     1FEF                     	;# 
  1671                           
  1672 ;; Function _rd1RegCompleteHandler is unused but had its address taken
  1673     0000                     
  1674 ;; Function _rd2RegCompleteHandler is unused but had its address taken
  1675     0000                     
  1676 ;; Function _wr1RegCompleteHandler is unused but had its address taken
  1677     0000                     
  1678 ;; Function _wr2RegCompleteHandler is unused but had its address taken
  1679     0000                     
  1680 ;; Function _rdBlkRegCompleteHandler is unused but had its address taken
  1681     0000                     
  1682 ;; Function _I2C1_DO_IDLE is unused but had its address taken
  1683     0000                     
  1684 ;; Function _I2C1_DO_SEND_ADR_READ is unused but had its address taken
  1685     0000                     
  1686 ;; Function _I2C1_DO_SEND_ADR_WRITE is unused but had its address taken
  1687     0000                     
  1688 ;; Function _I2C1_DO_TX is unused but had its address taken
  1689     0000                     
  1690 ;; Function _I2C1_DO_RX is unused but had its address taken
  1691     0000                     
  1692 ;; Function _I2C1_DO_RCEN is unused but had its address taken
  1693     0000                     
  1694 ;; Function _I2C1_DO_TX_EMPTY is unused but had its address taken
  1695     0000                     
  1696 ;; Function _I2C1_DO_SEND_RESTART_READ is unused but had its address taken
  1697     0000                     
  1698 ;; Function _I2C1_DO_SEND_RESTART_WRITE is unused but had its address taken
  1699     0000                     
  1700 ;; Function _I2C1_DO_SEND_RESTART is unused but had its address taken
  1701     0000                     
  1702 ;; Function _I2C1_DO_SEND_STOP is unused but had its address taken
  1703     0000                     
  1704 ;; Function _I2C1_DO_RX_ACK is unused but had its address taken
  1705     0000                     
  1706 ;; Function _I2C1_DO_RX_NACK_STOP is unused but had its address taken
  1707     0000                     
  1708 ;; Function _I2C1_DO_RX_NACK_RESTART is unused but had its address taken
  1709     0000                     
  1710 ;; Function _I2C1_DO_RESET is unused but had its address taken
  1711     0000                     
  1712 ;; Function _I2C1_DO_ADDRESS_NACK is unused but had its address taken
  1713     0000                     
  1714 ;; Function _I2C1_CallbackReturnStop is unused but had its address taken
  1715     0000                     
  1716 ;; Function _I2C1_CallbackReturnReset is unused but had its address taken
  1717     0000                     
  1718                           	psect	stringtext1
  1719     01F1                     __pstringtext1:
  1720     01F1                     _i2c1_fsmStateTable:
  1721     01F1  3400               	retlw	0
  1722     01F2  3400               	retlw	0
  1723     01F3  3400               	retlw	0
  1724     01F4  3400               	retlw	0
  1725     01F5  3400               	retlw	0
  1726     01F6  3400               	retlw	0
  1727     01F7  3400               	retlw	0
  1728     01F8  3400               	retlw	0
  1729     01F9  3400               	retlw	0
  1730     01FA  3400               	retlw	0
  1731     01FB  3400               	retlw	0
  1732     01FC  3400               	retlw	0
  1733     01FD  3400               	retlw	0
  1734     01FE  3400               	retlw	0
  1735     01FF  3400               	retlw	0
  1736     0200  3400               	retlw	0
  1737     0201  3400               	retlw	0
  1738     0202  3400               	retlw	0
  1739     0203  3400               	retlw	0
  1740     0204  3400               	retlw	0
  1741     0205  3400               	retlw	0
  1742     0206  3400               	retlw	0
  1743     0207  3400               	retlw	0
  1744     0208  3400               	retlw	0
  1745     0209  3400               	retlw	0
  1746     020A  3400               	retlw	0
  1747     020B  3400               	retlw	0
  1748     020C  3400               	retlw	0
  1749     020D  3400               	retlw	0
  1750     020E  3400               	retlw	0
  1751     020F  3400               	retlw	0
  1752     0210  3400               	retlw	0
  1753     0211                     __end_of_i2c1_fsmStateTable:
  1754                           
  1755                           	psect	stringtext2
  1756     0254                     __pstringtext2:
  1757     0254                     _digitToSegment:
  1758     0254  343F               	retlw	63
  1759     0255  3406               	retlw	6
  1760     0256  345B               	retlw	91
  1761     0257  344F               	retlw	79
  1762     0258  3466               	retlw	102
  1763     0259  346D               	retlw	109
  1764     025A  347D               	retlw	125
  1765     025B  3407               	retlw	7
  1766     025C  347F               	retlw	127
  1767     025D  346F               	retlw	111
  1768     025E  3477               	retlw	119
  1769     025F  347C               	retlw	124
  1770     0260  3439               	retlw	57
  1771     0261  345E               	retlw	94
  1772     0262  3479               	retlw	121
  1773     0263  3471               	retlw	113
  1774     0264                     __end_of_digitToSegment:
  1775                           
  1776                           	psect	stringtext3
  1777     02AD                     __pstringtext3:
  1778     02AD                     showNumberDecEx@divisors:
  1779     02AD  3401               	retlw	1
  1780     02AE  3400               	retlw	0
  1781     02AF  340A               	retlw	10
  1782     02B0  3400               	retlw	0
  1783     02B1  3464               	retlw	100
  1784     02B2  3400               	retlw	0
  1785     02B3  34E8               	retlw	232
  1786     02B4  3403               	retlw	3
  1787     02B5                     __end_ofshowNumberDecEx@divisors:
  1788                           
  1789                           	psect	stringtext4
  1790     02C9                     __pstringtext4:
  1791     02C9                     _SEG_DONE:
  1792     02C9  345E               	retlw	94
  1793     02CA  343F               	retlw	63
  1794     02CB  3454               	retlw	84
  1795     02CC  3479               	retlw	121
  1796     02CD                     __end_of_SEG_DONE:
  1797     000B                     _INTCONbits	set	11
  1798     000C                     _PORTAbits	set	12
  1799     0012                     _TRISAbits	set	18
  1800     0012                     _TRISA	set	18
  1801     0018                     _LATA	set	24
  1802     018F                     _SSP1STATbits	set	399
  1803     0191                     _SSP1CON2bits	set	401
  1804     018C                     _SSP1BUF	set	396
  1805     0190                     _SSP1CON1bits	set	400
  1806     018D                     _SSP1ADD	set	397
  1807     0191                     _SSP1CON2	set	401
  1808     0190                     _SSP1CON1	set	400
  1809     018F                     _SSP1STAT	set	399
  1810     070C                     _PIR0bits	set	1804
  1811     0716                     _PIE0bits	set	1814
  1812     0719                     _PIE3bits	set	1817
  1813     070F                     _PIR3bits	set	1807
  1814     079B                     _PMD5	set	1947
  1815     079A                     _PMD4	set	1946
  1816     0799                     _PMD3	set	1945
  1817     0798                     _PMD2	set	1944
  1818     0797                     _PMD1	set	1943
  1819     0796                     _PMD0	set	1942
  1820     0892                     _OSCTUNE	set	2194
  1821     0890                     _OSCSTAT	set	2192
  1822     0893                     _OSCFRQ	set	2195
  1823     0891                     _OSCEN	set	2193
  1824     088F                     _OSCCON3	set	2191
  1825     088D                     _OSCCON1	set	2189
  1826     1F3F                     _IOCAFbits	set	7999
  1827     1F3E                     _IOCANbits	set	7998
  1828     1F3C                     _INLVLA	set	7996
  1829     1F3B                     _SLRCONA	set	7995
  1830     1F3A                     _ODCONA	set	7994
  1831     1F39                     _WPUA	set	7993
  1832     1F38                     _ANSELA	set	7992
  1833                           
  1834                           	psect	cinit
  1835     004E                     start_initialization:	
  1836                           ; #config settings
  1837                           
  1838     004E                     __initialization:
  1839                           
  1840                           ; Clear objects allocated to COMMON
  1841     004E  01FC               	clrf	__pbssCOMMON& (0+127)
  1842                           
  1843                           ; Clear objects allocated to BANK0
  1844     004F  3020               	movlw	low __pbssBANK0
  1845     0050  0084               	movwf	4
  1846     0051  3000               	movlw	high __pbssBANK0
  1847     0052  0085               	movwf	5
  1848     0053  3025               	movlw	37
  1849     0054  3182  22BD  3180   	fcall	clear_ram0
  1850     0057                     end_of_initialization:	
  1851                           ;End of C runtime variable initialization code
  1852                           
  1853     0057                     __end_of__initialization:
  1854     0057  107E               	bcf	int$flags,0	;clear compiler interrupt flag (level 1)
  1855     0058  0140               	movlb	0
  1856     0059  29C8               	ljmp	_main	;jump to C main() function
  1857                           
  1858                           	psect	bssCOMMON
  1859     007C                     __pbssCOMMON:
  1860     007C                     _m_brightness:
  1861     007C                     	ds	1
  1862                           
  1863                           	psect	bssBANK0
  1864     0020                     __pbssBANK0:
  1865     0020                     _I2C1_Status:
  1866     0020                     	ds	29
  1867     003D                     _counter1:
  1868     003D                     	ds	2
  1869     003F                     _counter:
  1870     003F                     	ds	2
  1871     0041                     _IOCAF5_InterruptHandler:
  1872     0041                     	ds	2
  1873     0043                     _IOCAF4_InterruptHandler:
  1874     0043                     	ds	2
  1875                           
  1876                           	psect	clrtext
  1877     02BD                     clear_ram0:	
  1878                           ;	Called with FSR0 containing the base address, and
  1879                           ;	WREG with the size to clear
  1880                           
  1881     02BD  0064               	clrwdt	;clear the watchdog before getting into this loop
  1882     02BE                     clrloop0:
  1883     02BE  0180               	clrf	0	;clear RAM location pointed to by FSR
  1884     02BF  3101               	addfsr 0,1
  1885     02C0  0B89               	decfsz	9,f	;Have we reached the end of clearing yet?
  1886     02C1  2ABE               	goto	clrloop0	;have we reached the end yet?
  1887     02C2  3400               	retlw	0	;all done for this memory range, return
  1888                           
  1889                           	psect	cstackCOMMON
  1890     0070                     __pcstackCOMMON:
  1891     0070                     ?_PMD_Initialize:
  1892     0070                     ?_PIN_MANAGER_Initialize:	
  1893                           ; 1 bytes @ 0x0
  1894                           
  1895     0070                     ?_OSCILLATOR_Initialize:	
  1896                           ; 1 bytes @ 0x0
  1897                           
  1898     0070                     ?_start:	
  1899                           ; 1 bytes @ 0x0
  1900                           
  1901     0070                     ?_writeByte:	
  1902                           ; 1 bytes @ 0x0
  1903                           
  1904     0070                     ?_stop:	
  1905                           ; 1 bytes @ 0x0
  1906                           
  1907     0070                     ?_encodeDigit:	
  1908                           ; 1 bytes @ 0x0
  1909                           
  1910     0070                     ?_Setup:	
  1911                           ; 1 bytes @ 0x0
  1912                           
  1913     0070                     ?_I2C1_Initialize:	
  1914                           ; 1 bytes @ 0x0
  1915                           
  1916     0070                     ?_SYSTEM_Initialize:	
  1917                           ; 1 bytes @ 0x0
  1918                           
  1919     0070                     ?_bitDelay:	
  1920                           ; 1 bytes @ 0x0
  1921                           
  1922     0070                     ?_ISR:	
  1923                           ; 1 bytes @ 0x0
  1924                           
  1925     0070                     ??_ISR:	
  1926                           ; 1 bytes @ 0x0
  1927                           
  1928     0070                     ?_main:	
  1929                           ; 1 bytes @ 0x0
  1930                           
  1931                           
  1932                           ; 1 bytes @ 0x0
  1933     0070                     	ds	1
  1934     0071                     ??_PMD_Initialize:
  1935     0071                     ??_PIN_MANAGER_Initialize:	
  1936                           ; 1 bytes @ 0x1
  1937                           
  1938     0071                     ??_OSCILLATOR_Initialize:	
  1939                           ; 1 bytes @ 0x1
  1940                           
  1941     0071                     ??_start:	
  1942                           ; 1 bytes @ 0x1
  1943                           
  1944     0071                     ??_writeByte:	
  1945                           ; 1 bytes @ 0x1
  1946                           
  1947     0071                     ??_stop:	
  1948                           ; 1 bytes @ 0x1
  1949                           
  1950     0071                     ??_encodeDigit:	
  1951                           ; 1 bytes @ 0x1
  1952                           
  1953     0071                     ??_I2C1_Initialize:	
  1954                           ; 1 bytes @ 0x1
  1955                           
  1956     0071                     ??_SYSTEM_Initialize:	
  1957                           ; 1 bytes @ 0x1
  1958                           
  1959     0071                     ?_setBrightness:	
  1960                           ; 1 bytes @ 0x1
  1961                           
  1962     0071                     ??_bitDelay:	
  1963                           ; 1 bytes @ 0x1
  1964                           
  1965     0071                     ?___wmul:	
  1966                           ; 1 bytes @ 0x1
  1967                           
  1968     0071                     ?___awdiv:	
  1969                           ; 2 bytes @ 0x1
  1970                           
  1971     0071                     setBrightness@on:	
  1972                           ; 2 bytes @ 0x1
  1973                           
  1974     0071                     encodeDigit@digit:	
  1975                           ; 1 bytes @ 0x1
  1976                           
  1977     0071                     ___wmul@multiplier:	
  1978                           ; 1 bytes @ 0x1
  1979                           
  1980     0071                     ___awdiv@divisor:	
  1981                           ; 2 bytes @ 0x1
  1982                           
  1983                           
  1984                           ; 2 bytes @ 0x1
  1985     0071                     	ds	1
  1986     0072                     ??_setBrightness:
  1987     0072                     setBrightness@brightness:	
  1988                           ; 1 bytes @ 0x2
  1989                           
  1990     0072                     writeByte@b:	
  1991                           ; 1 bytes @ 0x2
  1992                           
  1993                           
  1994                           ; 1 bytes @ 0x2
  1995     0072                     	ds	1
  1996     0073                     writeByte@ack:
  1997     0073                     _setBrightness$1050:	
  1998                           ; 1 bytes @ 0x3
  1999                           
  2000     0073                     ___wmul@multiplicand:	
  2001                           ; 2 bytes @ 0x3
  2002                           
  2003     0073                     ___awdiv@dividend:	
  2004                           ; 2 bytes @ 0x3
  2005                           
  2006                           
  2007                           ; 2 bytes @ 0x3
  2008     0073                     	ds	1
  2009     0074                     writeByte@data:
  2010                           
  2011                           ; 1 bytes @ 0x4
  2012     0074                     	ds	1
  2013     0075                     ??_Setup:
  2014     0075                     ??___wmul:	
  2015                           ; 1 bytes @ 0x5
  2016                           
  2017     0075                     ??___awdiv:	
  2018                           ; 1 bytes @ 0x5
  2019                           
  2020     0075                     writeByte@i:	
  2021                           ; 1 bytes @ 0x5
  2022                           
  2023     0075                     ___wmul@product:	
  2024                           ; 1 bytes @ 0x5
  2025                           
  2026                           
  2027                           ; 2 bytes @ 0x5
  2028     0075                     	ds	1
  2029     0076                     ?_setSegments:
  2030     0076                     ___awdiv@counter:	
  2031                           ; 1 bytes @ 0x6
  2032                           
  2033     0076                     setSegments@segments:	
  2034                           ; 1 bytes @ 0x6
  2035                           
  2036                           
  2037                           ; 2 bytes @ 0x6
  2038     0076                     	ds	1
  2039     0077                     ___awdiv@sign:
  2040                           
  2041                           ; 1 bytes @ 0x7
  2042     0077                     	ds	1
  2043     0078                     setSegments@length:
  2044     0078                     ___awdiv@quotient:	
  2045                           ; 1 bytes @ 0x8
  2046                           
  2047                           
  2048                           ; 2 bytes @ 0x8
  2049     0078                     	ds	1
  2050     0079                     setSegments@pos:
  2051                           
  2052                           ; 1 bytes @ 0x9
  2053     0079                     	ds	1
  2054     007A                     ??_setSegments:
  2055                           
  2056                           ; 1 bytes @ 0xA
  2057     007A                     	ds	2
  2058                           
  2059                           	psect	cstackBANK0
  2060     0045                     __pcstackBANK0:
  2061     0045                     setSegments@k:
  2062                           
  2063                           ; 1 bytes @ 0x0
  2064     0045                     	ds	1
  2065     0046                     ?_showNumberDecEx:
  2066     0046                     showNumberDecEx@num:	
  2067                           ; 1 bytes @ 0x1
  2068                           
  2069                           
  2070                           ; 2 bytes @ 0x1
  2071     0046                     	ds	2
  2072     0048                     showNumberDecEx@dots:
  2073                           
  2074                           ; 1 bytes @ 0x3
  2075     0048                     	ds	1
  2076     0049                     showNumberDecEx@leading_zero:
  2077                           
  2078                           ; 1 bytes @ 0x4
  2079     0049                     	ds	1
  2080     004A                     showNumberDecEx@length:
  2081                           
  2082                           ; 1 bytes @ 0x5
  2083     004A                     	ds	1
  2084     004B                     showNumberDecEx@pos:
  2085                           
  2086                           ; 1 bytes @ 0x6
  2087     004B                     	ds	1
  2088     004C                     ??_showNumberDecEx:
  2089                           
  2090                           ; 1 bytes @ 0x7
  2091     004C                     	ds	5
  2092     0051                     showNumberDecEx@digits:
  2093                           
  2094                           ; 4 bytes @ 0xC
  2095     0051                     	ds	4
  2096     0055                     showNumberDecEx@leading:
  2097                           
  2098                           ; 1 bytes @ 0x10
  2099     0055                     	ds	1
  2100     0056                     showNumberDecEx@divisor:
  2101                           
  2102                           ; 2 bytes @ 0x11
  2103     0056                     	ds	2
  2104     0058                     showNumberDecEx@digit:
  2105                           
  2106                           ; 1 bytes @ 0x13
  2107     0058                     	ds	1
  2108     0059                     showNumberDecEx@d:
  2109                           
  2110                           ; 2 bytes @ 0x14
  2111     0059                     	ds	2
  2112     005B                     showNumberDecEx@k:
  2113                           
  2114                           ; 1 bytes @ 0x16
  2115     005B                     	ds	1
  2116     005C                     ??_main:
  2117                           
  2118                           ; 1 bytes @ 0x17
  2119     005C                     	ds	2
  2120                           
  2121                           	psect	maintext
  2122     01C8                     __pmaintext:	
  2123 ;;
  2124 ;;Main: autosize = 0, tempsize = 2, incstack = 0, save=0
  2125 ;;
  2126 ;; *************** function _main *****************
  2127 ;; Defined at:
  2128 ;;		line 58 in file "main.c"
  2129 ;; Parameters:    Size  Location     Type
  2130 ;;		None
  2131 ;; Auto vars:     Size  Location     Type
  2132 ;;		None
  2133 ;; Return value:  Size  Location     Type
  2134 ;;                  1    wreg      void 
  2135 ;; Registers used:
  2136 ;;		wreg, fsr0l, fsr0h, fsr1l, fsr1h, status,2, status,0, pclath, cstack
  2137 ;; Tracked objects:
  2138 ;;		On entry : B3F/0
  2139 ;;		On exit  : 0/0
  2140 ;;		Unchanged: 0/0
  2141 ;; Data sizes:     COMMON   BANK0   BANK1   BANK2
  2142 ;;      Params:         0       0       0       0
  2143 ;;      Locals:         0       0       0       0
  2144 ;;      Temps:          0       2       0       0
  2145 ;;      Totals:         0       2       0       0
  2146 ;;Total ram usage:        2 bytes
  2147 ;; Hardware stack levels required when called: 5
  2148 ;; This function calls:
  2149 ;;		_Setup
  2150 ;;		_showNumberDecEx
  2151 ;; This function is called by:
  2152 ;;		Startup code after reset
  2153 ;; This function uses a non-reentrant model
  2154 ;;
  2155                           
  2156     01C8                     _main:	
  2157                           ;psect for function _main
  2158                           
  2159     01C8                     l2333:	
  2160                           ;incstack = 0
  2161                           ; Regs used in _main: [wreg-fsr1h+status,2+status,0+pclath+cstack]
  2162                           
  2163                           
  2164                           ;main.c: 60:     Setup();
  2165     01C8  3182  2230  3181   	fcall	_Setup
  2166     01CB                     l2335:
  2167                           
  2168                           ;main.c: 65:         {;main.c: 66:             counter1 = counter * 4;
  2169     01CB  0140               	movlb	0	; select bank0
  2170     01CC  0840               	movf	_counter+1,w
  2171     01CD  00DD               	movwf	??_main+1
  2172     01CE  083F               	movf	_counter,w
  2173     01CF  00DC               	movwf	??_main
  2174     01D0  35DC               	lslf	??_main,f
  2175     01D1  0DDD               	rlf	??_main+1,f
  2176     01D2  35DC               	lslf	??_main,f
  2177     01D3  0DDD               	rlf	??_main+1,f
  2178     01D4  085C               	movf	??_main,w
  2179     01D5  00BD               	movwf	_counter1
  2180     01D6  085D               	movf	??_main+1,w
  2181     01D7  00BE               	movwf	_counter1+1
  2182     01D8                     l2337:
  2183                           
  2184                           ;main.c: 67:             showNumberDecEx(counter1, 0x40, 1, 4, 0);
  2185     01D8  083E               	movf	_counter1+1,w
  2186     01D9  00C7               	movwf	showNumberDecEx@num+1
  2187     01DA  083D               	movf	_counter1,w
  2188     01DB  00C6               	movwf	showNumberDecEx@num
  2189     01DC  3040               	movlw	64
  2190     01DD  00C8               	movwf	showNumberDecEx@dots
  2191     01DE  01C9               	clrf	showNumberDecEx@leading_zero
  2192     01DF  0AC9               	incf	showNumberDecEx@leading_zero,f
  2193     01E0  3004               	movlw	4
  2194     01E1  00CA               	movwf	showNumberDecEx@length
  2195     01E2  01CB               	clrf	showNumberDecEx@pos
  2196     01E3  3180  205A  3181   	fcall	_showNumberDecEx
  2197     01E6                     l2339:
  2198                           
  2199                           ;main.c: 68:             _delay((unsigned long)((20)*(8000000/4000.0)));
  2200     01E6  3034               	movlw	52
  2201     01E7  0140               	movlb	0	; select bank0
  2202     01E8  00DC               	movwf	??_main
  2203     01E9  30F1               	movlw	241
  2204     01EA                     u1037:
  2205     01EA  0B89               	decfsz	9,f
  2206     01EB  29EA               	goto	u1037
  2207     01EC  0BDC               	decfsz	??_main,f
  2208     01ED  29EA               	goto	u1037
  2209     01EE  3200               	nop2
  2210     01EF  29CB               	goto	l2335
  2211     01F0  284D               	ljmp	start
  2212     01F1                     __end_of_main:
  2213                           
  2214                           	psect	text1
  2215     005A                     __ptext1:	
  2216 ;; *************** function _showNumberDecEx *****************
  2217 ;; Defined at:
  2218 ;;		line 74 in file "TM1637Display.c"
  2219 ;; Parameters:    Size  Location     Type
  2220 ;;  num             2    1[BANK0 ] int 
  2221 ;;  dots            1    3[BANK0 ] unsigned char 
  2222 ;;  leading_zero    1    4[BANK0 ] _Bool 
  2223 ;;  length          1    5[BANK0 ] unsigned char 
  2224 ;;  pos             1    6[BANK0 ] unsigned char 
  2225 ;; Auto vars:     Size  Location     Type
  2226 ;;  d               2   20[BANK0 ] int 
  2227 ;;  divisor         2   17[BANK0 ] int 
  2228 ;;  digit           1   19[BANK0 ] unsigned char 
  2229 ;;  k               1   22[BANK0 ] char 
  2230 ;;  digits          4   12[BANK0 ] unsigned char [4]
  2231 ;;  leading         1   16[BANK0 ] _Bool 
  2232 ;; Return value:  Size  Location     Type
  2233 ;;                  1    wreg      void 
  2234 ;; Registers used:
  2235 ;;		wreg, fsr0l, fsr0h, fsr1l, fsr1h, status,2, status,0, pclath, cstack
  2236 ;; Tracked objects:
  2237 ;;		On entry : 0/0
  2238 ;;		On exit  : 0/0
  2239 ;;		Unchanged: 0/0
  2240 ;; Data sizes:     COMMON   BANK0   BANK1   BANK2
  2241 ;;      Params:         0       6       0       0
  2242 ;;      Locals:         0      11       0       0
  2243 ;;      Temps:          0       5       0       0
  2244 ;;      Totals:         0      22       0       0
  2245 ;;Total ram usage:       22 bytes
  2246 ;; Hardware stack levels used: 1
  2247 ;; Hardware stack levels required when called: 4
  2248 ;; This function calls:
  2249 ;;		___awdiv
  2250 ;;		___wmul
  2251 ;;		_encodeDigit
  2252 ;;		_setSegments
  2253 ;; This function is called by:
  2254 ;;		_main
  2255 ;;		_showNumberDec
  2256 ;; This function uses a non-reentrant model
  2257 ;;
  2258                           
  2259     005A                     _showNumberDecEx:	
  2260                           ;psect for function _showNumberDecEx
  2261                           
  2262     005A                     l2287:	
  2263                           ;incstack = 0
  2264                           ; Regs used in _showNumberDecEx: [wreg-fsr1h+status,2+status,0+pclath+cstack]
  2265                           
  2266                           
  2267                           ;TM1637Display.c: 74: void showNumberDecEx(int num, uint8_t dots, _Bool leading_zero ,ui
      +                          nt8_t length, uint8_t pos);TM1637Display.c: 75: {;TM1637Display.c: 76:   uint8_t digits[
      +                          4];;TM1637Display.c: 77:  const static int divisors[] = { 1, 10, 100, 1000 };;TM1637Disp
      +                          lay.c: 78:  _Bool leading = 1;
  2268     005A  0140               	movlb	0	; select bank0
  2269     005B  01D5               	clrf	showNumberDecEx@leading
  2270     005C  0AD5               	incf	showNumberDecEx@leading,f
  2271     005D                     l2289:
  2272                           
  2273                           ;TM1637Display.c: 80:  for(int8_t k = 0; k < 4; k++) {
  2274     005D  01DB               	clrf	showNumberDecEx@k
  2275     005E                     l2295:
  2276                           
  2277                           ;TM1637Display.c: 81:      int divisor = divisors[4 - 1 - k];
  2278     005E  085B               	movf	showNumberDecEx@k,w
  2279     005F  00CC               	movwf	??_showNumberDecEx
  2280     0060  01CD               	clrf	??_showNumberDecEx+1
  2281     0061  1BCC               	btfsc	??_showNumberDecEx,7
  2282     0062  03CD               	decf	??_showNumberDecEx+1,f
  2283     0063  3003               	movlw	3
  2284     0064  00CE               	movwf	??_showNumberDecEx+2
  2285     0065  084C               	movf	??_showNumberDecEx,w
  2286     0066  024E               	subwf	??_showNumberDecEx+2,w
  2287     0067  00CF               	movwf	??_showNumberDecEx+3
  2288     0068  094D               	comf	??_showNumberDecEx+1,w
  2289     0069  1803               	skipnc
  2290     006A  0A89               	incf	9,f
  2291     006B  00D0               	movwf	??_showNumberDecEx+4
  2292     006C  35CF               	lslf	??_showNumberDecEx+3,f
  2293     006D  0DD0               	rlf	??_showNumberDecEx+4,f
  2294     006E  30AD               	movlw	low showNumberDecEx@divisors
  2295     006F  074F               	addwf	??_showNumberDecEx+3,w
  2296     0070  0084               	movwf	4
  2297     0071  3002               	movlw	high showNumberDecEx@divisors
  2298     0072  3D50               	addwfc	??_showNumberDecEx+4,w
  2299     0073  3880               	iorlw	128
  2300     0074  0085               	movwf	5
  2301     0075  3F00               	moviw [0]fsr0
  2302     0076  00D6               	movwf	showNumberDecEx@divisor
  2303     0077  3F01               	moviw [1]fsr0
  2304     0078  00D7               	movwf	showNumberDecEx@divisor+1
  2305     0079                     l2297:
  2306                           
  2307                           ;TM1637Display.c: 82:   int d = num / divisor;
  2308     0079  0857               	movf	showNumberDecEx@divisor+1,w
  2309     007A  00F2               	movwf	___awdiv@divisor+1
  2310     007B  0856               	movf	showNumberDecEx@divisor,w
  2311     007C  00F1               	movwf	___awdiv@divisor
  2312     007D  0847               	movf	showNumberDecEx@num+1,w
  2313     007E  00F4               	movwf	___awdiv@dividend+1
  2314     007F  0846               	movf	showNumberDecEx@num,w
  2315     0080  00F3               	movwf	___awdiv@dividend
  2316     0081  3180  20E4  3180   	fcall	___awdiv
  2317     0084  0872               	movf	?___awdiv+1,w
  2318     0085  0140               	movlb	0	; select bank0
  2319     0086  00DA               	movwf	showNumberDecEx@d+1
  2320     0087  0871               	movf	?___awdiv,w
  2321     0088  00D9               	movwf	showNumberDecEx@d
  2322     0089                     l2299:
  2323     0089                     l2301:
  2324                           
  2325                           ;TM1637Display.c: 85:   if (d == 0) {
  2326     0089  0859               	movf	showNumberDecEx@d,w
  2327     008A  045A               	iorwf	showNumberDecEx@d+1,w
  2328     008B  1D03               	btfss	3,2
  2329     008C  288E               	goto	u981
  2330     008D  288F               	goto	u980
  2331     008E                     u981:
  2332     008E  28A8               	goto	l2313
  2333     008F                     u980:
  2334     008F                     l2303:
  2335                           
  2336                           ;TM1637Display.c: 86:     if (leading_zero || !leading || (k == 3))
  2337     008F  0849               	movf	showNumberDecEx@leading_zero,w
  2338     0090  1D03               	btfss	3,2
  2339     0091  2893               	goto	u991
  2340     0092  2894               	goto	u990
  2341     0093                     u991:
  2342     0093  289F               	goto	l2309
  2343     0094                     u990:
  2344     0094                     l2305:
  2345     0094  0855               	movf	showNumberDecEx@leading,w
  2346     0095  1903               	btfsc	3,2
  2347     0096  2898               	goto	u1001
  2348     0097  2899               	goto	u1000
  2349     0098                     u1001:
  2350     0098  289F               	goto	l2309
  2351     0099                     u1000:
  2352     0099                     l2307:
  2353     0099  3003               	movlw	3
  2354     009A  065B               	xorwf	showNumberDecEx@k,w
  2355     009B  1D03               	btfss	3,2
  2356     009C  289E               	goto	u1011
  2357     009D  289F               	goto	u1010
  2358     009E                     u1011:
  2359     009E  28A6               	goto	l2311
  2360     009F                     u1010:
  2361     009F                     l2309:
  2362                           
  2363                           ;TM1637Display.c: 87:         digit = encodeDigit(d);
  2364     009F  0859               	movf	showNumberDecEx@d,w
  2365     00A0  3182  228F  3180   	fcall	_encodeDigit
  2366     00A3  0140               	movlb	0	; select bank0
  2367     00A4  00D8               	movwf	showNumberDecEx@digit
  2368     00A5  28BF               	goto	l2319
  2369     00A6                     l2311:
  2370                           
  2371                           ;TM1637Display.c: 89:         digit = 0;
  2372     00A6  01D8               	clrf	showNumberDecEx@digit
  2373     00A7  28BF               	goto	l2319
  2374     00A8                     l2313:
  2375                           
  2376                           ;TM1637Display.c: 92:    digit = encodeDigit(d);
  2377     00A8  0859               	movf	showNumberDecEx@d,w
  2378     00A9  3182  228F  3180   	fcall	_encodeDigit
  2379     00AC  0140               	movlb	0	; select bank0
  2380     00AD  00D8               	movwf	showNumberDecEx@digit
  2381     00AE                     l2315:
  2382                           
  2383                           ;TM1637Display.c: 93:    num -= d * divisor;
  2384     00AE  085A               	movf	showNumberDecEx@d+1,w
  2385     00AF  00F2               	movwf	___wmul@multiplier+1
  2386     00B0  0859               	movf	showNumberDecEx@d,w
  2387     00B1  00F1               	movwf	___wmul@multiplier
  2388     00B2  0857               	movf	showNumberDecEx@divisor+1,w
  2389     00B3  00F4               	movwf	___wmul@multiplicand+1
  2390     00B4  0856               	movf	showNumberDecEx@divisor,w
  2391     00B5  00F3               	movwf	___wmul@multiplicand
  2392     00B6  3182  2211  3180   	fcall	___wmul
  2393     00B9  0871               	movf	?___wmul,w
  2394     00BA  0140               	movlb	0	; select bank0
  2395     00BB  02C6               	subwf	showNumberDecEx@num,f
  2396     00BC  0872               	movf	?___wmul+1,w
  2397     00BD  3BC7               	subwfb	showNumberDecEx@num+1,f
  2398     00BE                     l2317:
  2399                           
  2400                           ;TM1637Display.c: 94:    leading = 0;
  2401     00BE  01D5               	clrf	showNumberDecEx@leading
  2402     00BF                     l2319:
  2403                           
  2404                           ;TM1637Display.c: 98:     digit |= (dots & 0x80);
  2405     00BF  0848               	movf	showNumberDecEx@dots,w
  2406     00C0  3980               	andlw	128
  2407     00C1  00CC               	movwf	??_showNumberDecEx
  2408     00C2  084C               	movf	??_showNumberDecEx,w
  2409     00C3  04D8               	iorwf	showNumberDecEx@digit,f
  2410     00C4                     l2321:
  2411                           
  2412                           ;TM1637Display.c: 99:     dots <<= 1;
  2413     00C4  1003               	clrc
  2414     00C5  0DC8               	rlf	showNumberDecEx@dots,f
  2415     00C6                     l2323:
  2416                           
  2417                           ;TM1637Display.c: 101:     digits[k] = digit;
  2418     00C6  085B               	movf	showNumberDecEx@k,w
  2419     00C7  3E51               	addlw	(low (showNumberDecEx@digits| 0))& (0+255)
  2420     00C8  0086               	movwf	6
  2421     00C9  0187               	clrf	7
  2422     00CA  0858               	movf	showNumberDecEx@digit,w
  2423     00CB  0081               	movwf	1
  2424     00CC                     l2325:
  2425                           
  2426                           ;TM1637Display.c: 102:  }
  2427     00CC  3001               	movlw	1
  2428     00CD  00CC               	movwf	??_showNumberDecEx
  2429     00CE  084C               	movf	??_showNumberDecEx,w
  2430     00CF  07DB               	addwf	showNumberDecEx@k,f
  2431     00D0                     l2327:
  2432     00D0  085B               	movf	showNumberDecEx@k,w
  2433     00D1  3A80               	xorlw	128
  2434     00D2  3E7C               	addlw	-132
  2435     00D3  1C03               	skipc
  2436     00D4  28D6               	goto	u1021
  2437     00D5  28D7               	goto	u1020
  2438     00D6                     u1021:
  2439     00D6  285E               	goto	l2295
  2440     00D7                     u1020:
  2441     00D7                     l2329:
  2442                           
  2443                           ;TM1637Display.c: 104:  setSegments(digits + (4 - length), length, pos);
  2444     00D7  084A               	movf	showNumberDecEx@length,w
  2445     00D8  3C04               	sublw	4
  2446     00D9  3E51               	addlw	(low (showNumberDecEx@digits| 0))& (0+255)
  2447     00DA  00F6               	movwf	setSegments@segments
  2448     00DB  01F7               	clrf	setSegments@segments+1
  2449     00DC  084A               	movf	showNumberDecEx@length,w
  2450     00DD  00F8               	movwf	setSegments@length
  2451     00DE  084B               	movf	showNumberDecEx@pos,w
  2452     00DF  00F9               	movwf	setSegments@pos
  2453     00E0  3181  2188  3180   	fcall	_setSegments
  2454     00E3                     l548:
  2455     00E3  0008               	return
  2456     00E4                     __end_of_showNumberDecEx:
  2457                           
  2458                           	psect	text2
  2459     0188                     __ptext2:	
  2460 ;; *************** function _setSegments *****************
  2461 ;; Defined at:
  2462 ;;		line 46 in file "TM1637Display.c"
  2463 ;; Parameters:    Size  Location     Type
  2464 ;;  segments        2    6[COMMON] PTR const unsigned char 
  2465 ;;		 -> SEG_DONE(4), showNumberDecEx@digits(4), 
  2466 ;;  length          1    8[COMMON] unsigned char 
  2467 ;;  pos             1    9[COMMON] unsigned char 
  2468 ;; Auto vars:     Size  Location     Type
  2469 ;;  k               1    0[BANK0 ] unsigned char 
  2470 ;; Return value:  Size  Location     Type
  2471 ;;                  1    wreg      void 
  2472 ;; Registers used:
  2473 ;;		wreg, fsr0l, fsr0h, status,2, status,0, pclath, cstack
  2474 ;; Tracked objects:
  2475 ;;		On entry : 0/0
  2476 ;;		On exit  : 0/0
  2477 ;;		Unchanged: 0/0
  2478 ;; Data sizes:     COMMON   BANK0   BANK1   BANK2
  2479 ;;      Params:         4       0       0       0
  2480 ;;      Locals:         0       1       0       0
  2481 ;;      Temps:          2       0       0       0
  2482 ;;      Totals:         6       1       0       0
  2483 ;;Total ram usage:        7 bytes
  2484 ;; Hardware stack levels used: 1
  2485 ;; Hardware stack levels required when called: 3
  2486 ;; This function calls:
  2487 ;;		_start
  2488 ;;		_stop
  2489 ;;		_writeByte
  2490 ;; This function is called by:
  2491 ;;		_showNumberDecEx
  2492 ;;		_Display_done
  2493 ;; This function uses a non-reentrant model
  2494 ;;
  2495                           
  2496     0188                     _setSegments:	
  2497                           ;psect for function _setSegments
  2498                           
  2499     0188                     l2275:	
  2500                           ;incstack = 0
  2501                           ; Regs used in _setSegments: [wreg-fsr0h+status,2+status,0+pclath+cstack]
  2502                           
  2503                           
  2504                           ;TM1637Display.c: 46: void setSegments(const uint8_t segments[], uint8_t length, uint8_t
      +                           pos);TM1637Display.c: 47: {;TM1637Display.c: 49:  start();
  2505     0188  3182  22C3  3181   	fcall	_start
  2506                           
  2507                           ;TM1637Display.c: 50:  writeByte(0x40);
  2508     018B  3040               	movlw	64
  2509     018C  3181  2143  3181   	fcall	_writeByte
  2510                           
  2511                           ;TM1637Display.c: 51:  stop();
  2512     018F  3182  2264  3181   	fcall	_stop
  2513                           
  2514                           ;TM1637Display.c: 54:  start();
  2515     0192  3182  22C3  3181   	fcall	_start
  2516                           
  2517                           ;TM1637Display.c: 55:  writeByte(0xC0 + (pos & 0x03));
  2518     0195  0879               	movf	setSegments@pos,w
  2519     0196  3903               	andlw	3
  2520     0197  3EC0               	addlw	192
  2521     0198  3181  2143  3181   	fcall	_writeByte
  2522     019B                     l2277:
  2523                           
  2524                           ;TM1637Display.c: 58:  for (uint8_t k=0; k < length; k++)
  2525     019B  0140               	movlb	0	; select bank0
  2526     019C  01C5               	clrf	setSegments@k
  2527     019D  29B2               	goto	l2283
  2528     019E                     l2279:
  2529                           
  2530                           ;TM1637Display.c: 59:    writeByte(segments[k]);
  2531     019E  0877               	movf	setSegments@segments+1,w
  2532     019F  00FB               	movwf	??_setSegments+1
  2533     01A0  0876               	movf	setSegments@segments,w
  2534     01A1  00FA               	movwf	??_setSegments
  2535     01A2  0845               	movf	setSegments@k,w
  2536     01A3  077A               	addwf	??_setSegments,w
  2537     01A4  0084               	movwf	4
  2538     01A5  087B               	movf	??_setSegments+1,w
  2539     01A6  1803               	skipnc
  2540     01A7  0A7B               	incf	??_setSegments+1,w
  2541     01A8  0085               	movwf	5
  2542     01A9  0800               	movf	0,w	;code access
  2543     01AA  3181  2143  3181   	fcall	_writeByte
  2544     01AD                     l2281:
  2545     01AD  3001               	movlw	1
  2546     01AE  00FA               	movwf	??_setSegments
  2547     01AF  087A               	movf	??_setSegments,w
  2548     01B0  0140               	movlb	0	; select bank0
  2549     01B1  07C5               	addwf	setSegments@k,f
  2550     01B2                     l2283:
  2551     01B2  0878               	movf	setSegments@length,w
  2552     01B3  0245               	subwf	setSegments@k,w
  2553     01B4  1C03               	skipc
  2554     01B5  29B7               	goto	u971
  2555     01B6  29B8               	goto	u970
  2556     01B7                     u971:
  2557     01B7  299E               	goto	l2279
  2558     01B8                     u970:
  2559     01B8                     l2285:
  2560                           
  2561                           ;TM1637Display.c: 61:  stop();
  2562     01B8  3182  2264  3181   	fcall	_stop
  2563                           
  2564                           ;TM1637Display.c: 64:  start();
  2565     01BB  3182  22C3  3181   	fcall	_start
  2566                           
  2567                           ;TM1637Display.c: 65:  writeByte(0x80 + (m_brightness & 0x0f));
  2568     01BE  087C               	movf	_m_brightness,w
  2569     01BF  390F               	andlw	15
  2570     01C0  3E80               	addlw	128
  2571     01C1  3181  2143  3181   	fcall	_writeByte
  2572                           
  2573                           ;TM1637Display.c: 66:  stop();
  2574     01C4  3182  2264  3181   	fcall	_stop
  2575     01C7                     l532:
  2576     01C7  0008               	return
  2577     01C8                     __end_of_setSegments:
  2578                           
  2579                           	psect	text3
  2580     0143                     __ptext3:	
  2581 ;; *************** function _writeByte *****************
  2582 ;; Defined at:
  2583 ;;		line 129 in file "TM1637Display.c"
  2584 ;; Parameters:    Size  Location     Type
  2585 ;;  b               1    wreg     unsigned char 
  2586 ;; Auto vars:     Size  Location     Type
  2587 ;;  b               1    2[COMMON] unsigned char 
  2588 ;;  i               1    5[COMMON] unsigned char 
  2589 ;;  data            1    4[COMMON] unsigned char 
  2590 ;;  ack             1    3[COMMON] unsigned char 
  2591 ;; Return value:  Size  Location     Type
  2592 ;;                  1    wreg      _Bool 
  2593 ;; Registers used:
  2594 ;;		wreg, status,2, status,0, pclath, cstack
  2595 ;; Tracked objects:
  2596 ;;		On entry : 0/0
  2597 ;;		On exit  : 0/0
  2598 ;;		Unchanged: 0/0
  2599 ;; Data sizes:     COMMON   BANK0   BANK1   BANK2
  2600 ;;      Params:         0       0       0       0
  2601 ;;      Locals:         4       0       0       0
  2602 ;;      Temps:          1       0       0       0
  2603 ;;      Totals:         5       0       0       0
  2604 ;;Total ram usage:        5 bytes
  2605 ;; Hardware stack levels used: 1
  2606 ;; Hardware stack levels required when called: 2
  2607 ;; This function calls:
  2608 ;;		_bitDelay
  2609 ;; This function is called by:
  2610 ;;		_setSegments
  2611 ;; This function uses a non-reentrant model
  2612 ;;
  2613                           
  2614     0143                     _writeByte:	
  2615                           ;psect for function _writeByte
  2616                           
  2617                           
  2618                           ;incstack = 0
  2619                           ; Regs used in _writeByte: [wreg+status,2+status,0+pclath+cstack]
  2620                           ;writeByte@b stored from wreg
  2621     0143  00F2               	movwf	writeByte@b
  2622     0144                     l2233:
  2623                           
  2624                           ;TM1637Display.c: 129: _Bool writeByte(uint8_t b);TM1637Display.c: 130: {;TM1637Display.
      +                          c: 131:   uint8_t data = b;
  2625     0144  0872               	movf	writeByte@b,w
  2626     0145  00F4               	movwf	writeByte@data
  2627     0146                     l2235:
  2628                           
  2629                           ;TM1637Display.c: 134:   for(uint8_t i = 0; i < 8; i++) {
  2630     0146  01F5               	clrf	writeByte@i
  2631     0147                     l570:	
  2632                           ;TM1637Display.c: 136:     do { TRISAbits.TRISA1 = 0; } while(0);
  2633                           
  2634     0147  0140               	movlb	0	; select bank0
  2635     0148  1092               	bcf	18,1	;volatile
  2636     0149                     l2241:
  2637                           
  2638                           ;TM1637Display.c: 137:     bitDelay();
  2639     0149  3182  22CD  3181   	fcall	_bitDelay
  2640     014C                     l2243:
  2641                           
  2642                           ;TM1637Display.c: 140:     if (data & 0x01)
  2643     014C  1C74               	btfss	writeByte@data,0
  2644     014D  294F               	goto	u941
  2645     014E  2950               	goto	u940
  2646     014F                     u941:
  2647     014F  2953               	goto	l576
  2648     0150                     u940:
  2649     0150                     l573:	
  2650                           ;TM1637Display.c: 141:        do { TRISAbits.TRISA2 = 1; } while(0);
  2651                           
  2652     0150  0140               	movlb	0	; select bank0
  2653     0151  1512               	bsf	18,2	;volatile
  2654     0152  2955               	goto	l2245
  2655     0153                     l576:	
  2656                           ;TM1637Display.c: 143:       do { TRISAbits.TRISA2 = 0; } while(0);
  2657                           
  2658     0153  0140               	movlb	0	; select bank0
  2659     0154  1112               	bcf	18,2	;volatile
  2660     0155                     l2245:
  2661                           
  2662                           ;TM1637Display.c: 145:     bitDelay();
  2663     0155  3182  22CD  3181   	fcall	_bitDelay
  2664     0158                     l2247:
  2665     0158  0140               	movlb	0	; select bank0
  2666     0159  1492               	bsf	18,1	;volatile
  2667     015A                     l579:
  2668                           
  2669                           ;TM1637Display.c: 149:     bitDelay();
  2670     015A  3182  22CD  3181   	fcall	_bitDelay
  2671     015D                     l2249:
  2672                           
  2673                           ;TM1637Display.c: 150:     data = data >> 1;
  2674     015D  3674               	lsrf	writeByte@data,w
  2675     015E  00F4               	movwf	writeByte@data
  2676     015F                     l2251:
  2677                           
  2678                           ;TM1637Display.c: 151:   }
  2679     015F  3001               	movlw	1
  2680     0160  00F1               	movwf	??_writeByte
  2681     0161  0871               	movf	??_writeByte,w
  2682     0162  07F5               	addwf	writeByte@i,f
  2683     0163                     l2253:
  2684     0163  3008               	movlw	8
  2685     0164  0275               	subwf	writeByte@i,w
  2686     0165  1C03               	skipc
  2687     0166  2968               	goto	u951
  2688     0167  2969               	goto	u950
  2689     0168                     u951:
  2690     0168  2947               	goto	l570
  2691     0169                     u950:
  2692     0169                     l580:	
  2693                           ;TM1637Display.c: 155:   do { TRISAbits.TRISA1 = 0; } while(0);
  2694                           
  2695     0169  0140               	movlb	0	; select bank0
  2696     016A  1092               	bcf	18,1	;volatile
  2697     016B                     l582:	
  2698                           ;TM1637Display.c: 156:   do { TRISAbits.TRISA2 = 1; } while(0);
  2699                           
  2700     016B  1512               	bsf	18,2	;volatile
  2701     016C                     l2255:
  2702                           
  2703                           ;TM1637Display.c: 157:   bitDelay();
  2704     016C  3182  22CD  3181   	fcall	_bitDelay
  2705     016F                     l2257:
  2706     016F  0140               	movlb	0	; select bank0
  2707     0170  1492               	bsf	18,1	;volatile
  2708     0171                     l585:
  2709                           
  2710                           ;TM1637Display.c: 161:   bitDelay();
  2711     0171  3182  22CD  3181   	fcall	_bitDelay
  2712     0174                     l2259:
  2713                           
  2714                           ;TM1637Display.c: 162:   uint8_t ack = PORTAbits.RA2;
  2715     0174  3000               	movlw	0
  2716     0175  0140               	movlb	0	; select bank0
  2717     0176  190C               	btfsc	12,2	;volatile
  2718     0177  3001               	movlw	1
  2719     0178  00F3               	movwf	writeByte@ack
  2720     0179                     l2261:
  2721                           
  2722                           ;TM1637Display.c: 163:   if (ack == 0)
  2723     0179  0873               	movf	writeByte@ack,w
  2724     017A  1D03               	btfss	3,2
  2725     017B  297D               	goto	u961
  2726     017C  297E               	goto	u960
  2727     017D                     u961:
  2728     017D  297F               	goto	l2263
  2729     017E                     u960:
  2730     017E                     l587:	
  2731                           ;TM1637Display.c: 164:     do { TRISAbits.TRISA2 = 0; } while(0) ;
  2732                           
  2733     017E  1112               	bcf	18,2	;volatile
  2734     017F                     l2263:
  2735                           
  2736                           ;TM1637Display.c: 166:   bitDelay();
  2737     017F  3182  22CD  3181   	fcall	_bitDelay
  2738     0182                     l2265:
  2739     0182  0140               	movlb	0	; select bank0
  2740     0183  1092               	bcf	18,1	;volatile
  2741     0184                     l590:
  2742                           
  2743                           ;TM1637Display.c: 168:   bitDelay();
  2744     0184  3182  22CD  3181   	fcall	_bitDelay
  2745     0187                     l591:
  2746     0187  0008               	return
  2747     0188                     __end_of_writeByte:
  2748                           
  2749                           	psect	text4
  2750     0264                     __ptext4:	
  2751 ;; *************** function _stop *****************
  2752 ;; Defined at:
  2753 ;;		line 119 in file "TM1637Display.c"
  2754 ;; Parameters:    Size  Location     Type
  2755 ;;		None
  2756 ;; Auto vars:     Size  Location     Type
  2757 ;;		None
  2758 ;; Return value:  Size  Location     Type
  2759 ;;                  1    wreg      void 
  2760 ;; Registers used:
  2761 ;;		wreg, status,2, status,0, pclath, cstack
  2762 ;; Tracked objects:
  2763 ;;		On entry : 0/0
  2764 ;;		On exit  : 0/0
  2765 ;;		Unchanged: 0/0
  2766 ;; Data sizes:     COMMON   BANK0   BANK1   BANK2
  2767 ;;      Params:         0       0       0       0
  2768 ;;      Locals:         0       0       0       0
  2769 ;;      Temps:          0       0       0       0
  2770 ;;      Totals:         0       0       0       0
  2771 ;;Total ram usage:        0 bytes
  2772 ;; Hardware stack levels used: 1
  2773 ;; Hardware stack levels required when called: 2
  2774 ;; This function calls:
  2775 ;;		_bitDelay
  2776 ;; This function is called by:
  2777 ;;		_setSegments
  2778 ;; This function uses a non-reentrant model
  2779 ;;
  2780                           
  2781     0264                     _stop:	
  2782                           ;psect for function _stop
  2783                           
  2784     0264                     l559:	
  2785                           ;incstack = 0
  2786                           ; Regs used in _stop: [wreg+status,2+status,0+pclath+cstack]
  2787                           ;TM1637Display.c: 121:  do { TRISAbits.TRISA2 = 0; } while(0);
  2788                           
  2789     0264  0140               	movlb	0	; select bank0
  2790     0265  1112               	bcf	18,2	;volatile
  2791     0266                     l2269:
  2792                           
  2793                           ;TM1637Display.c: 122:  bitDelay();
  2794     0266  3182  22CD  3182   	fcall	_bitDelay
  2795     0269                     l2271:
  2796     0269  0140               	movlb	0	; select bank0
  2797     026A  1492               	bsf	18,1	;volatile
  2798     026B                     l562:
  2799                           
  2800                           ;TM1637Display.c: 124:  bitDelay();
  2801     026B  3182  22CD  3182   	fcall	_bitDelay
  2802     026E                     l2273:
  2803     026E  0140               	movlb	0	; select bank0
  2804     026F  1512               	bsf	18,2	;volatile
  2805     0270                     l564:
  2806                           
  2807                           ;TM1637Display.c: 126:  bitDelay();
  2808     0270  3182  22CD  3182   	fcall	_bitDelay
  2809     0273                     l565:
  2810     0273  0008               	return
  2811     0274                     __end_of_stop:
  2812                           
  2813                           	psect	text5
  2814     02C3                     __ptext5:	
  2815 ;; *************** function _start *****************
  2816 ;; Defined at:
  2817 ;;		line 113 in file "TM1637Display.c"
  2818 ;; Parameters:    Size  Location     Type
  2819 ;;		None
  2820 ;; Auto vars:     Size  Location     Type
  2821 ;;		None
  2822 ;; Return value:  Size  Location     Type
  2823 ;;                  1    wreg      void 
  2824 ;; Registers used:
  2825 ;;		wreg, status,2, status,0, pclath, cstack
  2826 ;; Tracked objects:
  2827 ;;		On entry : 0/0
  2828 ;;		On exit  : 0/0
  2829 ;;		Unchanged: 0/0
  2830 ;; Data sizes:     COMMON   BANK0   BANK1   BANK2
  2831 ;;      Params:         0       0       0       0
  2832 ;;      Locals:         0       0       0       0
  2833 ;;      Temps:          0       0       0       0
  2834 ;;      Totals:         0       0       0       0
  2835 ;;Total ram usage:        0 bytes
  2836 ;; Hardware stack levels used: 1
  2837 ;; Hardware stack levels required when called: 2
  2838 ;; This function calls:
  2839 ;;		_bitDelay
  2840 ;; This function is called by:
  2841 ;;		_setSegments
  2842 ;; This function uses a non-reentrant model
  2843 ;;
  2844                           
  2845     02C3                     _start:	
  2846                           ;psect for function _start
  2847                           
  2848     02C3                     l554:	
  2849                           ;incstack = 0
  2850                           ; Regs used in _start: [wreg+status,2+status,0+pclath+cstack]
  2851                           ;TM1637Display.c: 115:   do { TRISAbits.TRISA2 = 0; } while(0);
  2852                           
  2853     02C3  0140               	movlb	0	; select bank0
  2854     02C4  1112               	bcf	18,2	;volatile
  2855     02C5                     l2231:
  2856                           
  2857                           ;TM1637Display.c: 116:   bitDelay();
  2858     02C5  3182  22CD  3182   	fcall	_bitDelay
  2859     02C8                     l556:
  2860     02C8  0008               	return
  2861     02C9                     __end_of_start:
  2862                           
  2863                           	psect	text6
  2864     02CD                     __ptext6:	
  2865 ;; *************** function _bitDelay *****************
  2866 ;; Defined at:
  2867 ;;		line 108 in file "TM1637Display.c"
  2868 ;; Parameters:    Size  Location     Type
  2869 ;;		None
  2870 ;; Auto vars:     Size  Location     Type
  2871 ;;		None
  2872 ;; Return value:  Size  Location     Type
  2873 ;;                  1    wreg      void 
  2874 ;; Registers used:
  2875 ;;		wreg
  2876 ;; Tracked objects:
  2877 ;;		On entry : 0/0
  2878 ;;		On exit  : 0/0
  2879 ;;		Unchanged: 0/0
  2880 ;; Data sizes:     COMMON   BANK0   BANK1   BANK2
  2881 ;;      Params:         0       0       0       0
  2882 ;;      Locals:         0       0       0       0
  2883 ;;      Temps:          0       0       0       0
  2884 ;;      Totals:         0       0       0       0
  2885 ;;Total ram usage:        0 bytes
  2886 ;; Hardware stack levels used: 1
  2887 ;; Hardware stack levels required when called: 1
  2888 ;; This function calls:
  2889 ;;		Nothing
  2890 ;; This function is called by:
  2891 ;;		_start
  2892 ;;		_stop
  2893 ;;		_writeByte
  2894 ;; This function uses a non-reentrant model
  2895 ;;
  2896                           
  2897     02CD                     _bitDelay:	
  2898                           ;psect for function _bitDelay
  2899                           
  2900     02CD                     l2229:	
  2901                           ;incstack = 0
  2902                           ; Regs used in _bitDelay: [wreg]
  2903                           
  2904                           
  2905                           ;TM1637Display.c: 110:  _delay((unsigned long)((75)*(8000000/4000000.0)));
  2906     02CD  3032               	movlw	50
  2907     02CE                     u1047:
  2908     02CE  0B89               	decfsz	9,f
  2909     02CF  2ACE               	goto	u1047
  2910     02D0                     l551:
  2911     02D0  0008               	return
  2912     02D1                     __end_of_bitDelay:
  2913                           
  2914                           	psect	text7
  2915     028F                     __ptext7:	
  2916 ;; *************** function _encodeDigit *****************
  2917 ;; Defined at:
  2918 ;;		line 173 in file "TM1637Display.c"
  2919 ;; Parameters:    Size  Location     Type
  2920 ;;  digit           1    wreg     unsigned char 
  2921 ;; Auto vars:     Size  Location     Type
  2922 ;;  digit           1    1[COMMON] unsigned char 
  2923 ;; Return value:  Size  Location     Type
  2924 ;;                  1    wreg      unsigned char 
  2925 ;; Registers used:
  2926 ;;		wreg, fsr0l, fsr0h, status,2, pclath
  2927 ;; Tracked objects:
  2928 ;;		On entry : 0/0
  2929 ;;		On exit  : 0/0
  2930 ;;		Unchanged: 0/0
  2931 ;; Data sizes:     COMMON   BANK0   BANK1   BANK2
  2932 ;;      Params:         0       0       0       0
  2933 ;;      Locals:         1       0       0       0
  2934 ;;      Temps:          0       0       0       0
  2935 ;;      Totals:         1       0       0       0
  2936 ;;Total ram usage:        1 bytes
  2937 ;; Hardware stack levels used: 1
  2938 ;; Hardware stack levels required when called: 1
  2939 ;; This function calls:
  2940 ;;		Nothing
  2941 ;; This function is called by:
  2942 ;;		_showNumberDecEx
  2943 ;; This function uses a non-reentrant model
  2944 ;;
  2945                           
  2946     028F                     _encodeDigit:	
  2947                           ;psect for function _encodeDigit
  2948                           
  2949                           
  2950                           ;incstack = 0
  2951                           ; Regs used in _encodeDigit: [wreg-fsr0h+status,2+pclath]
  2952                           ;encodeDigit@digit stored from wreg
  2953     028F  00F1               	movwf	encodeDigit@digit
  2954     0290                     l2079:
  2955                           
  2956                           ;TM1637Display.c: 173: uint8_t encodeDigit(uint8_t digit);TM1637Display.c: 174: {;TM1637
      +                          Display.c: 175:  return digitToSegment[digit & 0x0f];
  2957     0290  0871               	movf	encodeDigit@digit,w
  2958     0291  390F               	andlw	15
  2959     0292  3E54               	addlw	low (_digitToSegment| (0+32768))
  2960     0293  0084               	movwf	4
  2961     0294  3082               	movlw	high (_digitToSegment| (0+32768))
  2962     0295  1803               	skipnc
  2963     0296  3E01               	addlw	1
  2964     0297  0085               	movwf	5
  2965     0298  0800               	movf	0,w	;code access
  2966     0299                     l594:
  2967     0299  0008               	return
  2968     029A                     __end_of_encodeDigit:
  2969                           
  2970                           	psect	text8
  2971     0211                     __ptext8:	
  2972 ;; *************** function ___wmul *****************
  2973 ;; Defined at:
  2974 ;;		line 15 in file "C:\Program Files\Microchip\xc8\v2.46\pic\sources\c99\common\Umul16.c"
  2975 ;; Parameters:    Size  Location     Type
  2976 ;;  multiplier      2    1[COMMON] unsigned int 
  2977 ;;  multiplicand    2    3[COMMON] unsigned int 
  2978 ;; Auto vars:     Size  Location     Type
  2979 ;;  product         2    5[COMMON] unsigned int 
  2980 ;; Return value:  Size  Location     Type
  2981 ;;                  2    1[COMMON] unsigned int 
  2982 ;; Registers used:
  2983 ;;		wreg, status,2, status,0
  2984 ;; Tracked objects:
  2985 ;;		On entry : 0/0
  2986 ;;		On exit  : 0/0
  2987 ;;		Unchanged: 0/0
  2988 ;; Data sizes:     COMMON   BANK0   BANK1   BANK2
  2989 ;;      Params:         4       0       0       0
  2990 ;;      Locals:         2       0       0       0
  2991 ;;      Temps:          0       0       0       0
  2992 ;;      Totals:         6       0       0       0
  2993 ;;Total ram usage:        6 bytes
  2994 ;; Hardware stack levels used: 1
  2995 ;; Hardware stack levels required when called: 1
  2996 ;; This function calls:
  2997 ;;		Nothing
  2998 ;; This function is called by:
  2999 ;;		_showNumberDecEx
  3000 ;; This function uses a non-reentrant model
  3001 ;;
  3002                           
  3003     0211                     ___wmul:	
  3004                           ;psect for function ___wmul
  3005                           
  3006     0211                     l2083:	
  3007                           ;incstack = 0
  3008                           ; Regs used in ___wmul: [wreg+status,2+status,0]
  3009                           
  3010     0211  01F5               	clrf	___wmul@product
  3011     0212  01F6               	clrf	___wmul@product+1
  3012     0213                     l2085:
  3013     0213  1C71               	btfss	___wmul@multiplier,0
  3014     0214  2A16               	goto	u671
  3015     0215  2A17               	goto	u670
  3016     0216                     u671:
  3017     0216  2A1B               	goto	l721
  3018     0217                     u670:
  3019     0217                     l2087:
  3020     0217  0873               	movf	___wmul@multiplicand,w
  3021     0218  07F5               	addwf	___wmul@product,f
  3022     0219  0874               	movf	___wmul@multiplicand+1,w
  3023     021A  3DF6               	addwfc	___wmul@product+1,f
  3024     021B                     l721:
  3025     021B  3001               	movlw	1
  3026     021C                     u685:
  3027     021C  35F3               	lslf	___wmul@multiplicand,f
  3028     021D  0DF4               	rlf	___wmul@multiplicand+1,f
  3029     021E  0B89               	decfsz	9,f
  3030     021F  2A1C               	goto	u685
  3031     0220                     l2089:
  3032     0220  3001               	movlw	1
  3033     0221                     u695:
  3034     0221  36F2               	lsrf	___wmul@multiplier+1,f
  3035     0222  0CF1               	rrf	___wmul@multiplier,f
  3036     0223  0B89               	decfsz	9,f
  3037     0224  2A21               	goto	u695
  3038     0225                     l2091:
  3039     0225  0871               	movf	___wmul@multiplier,w
  3040     0226  0472               	iorwf	___wmul@multiplier+1,w
  3041     0227  1D03               	btfss	3,2
  3042     0228  2A2A               	goto	u701
  3043     0229  2A2B               	goto	u700
  3044     022A                     u701:
  3045     022A  2A13               	goto	l2085
  3046     022B                     u700:
  3047     022B                     l2093:
  3048     022B  0876               	movf	___wmul@product+1,w
  3049     022C  00F2               	movwf	?___wmul+1
  3050     022D  0875               	movf	___wmul@product,w
  3051     022E  00F1               	movwf	?___wmul
  3052     022F                     l723:
  3053     022F  0008               	return
  3054     0230                     __end_of___wmul:
  3055                           
  3056                           	psect	text9
  3057     00E4                     __ptext9:	
  3058 ;; *************** function ___awdiv *****************
  3059 ;; Defined at:
  3060 ;;		line 5 in file "C:\Program Files\Microchip\xc8\v2.46\pic\sources\c99\common\awdiv.c"
  3061 ;; Parameters:    Size  Location     Type
  3062 ;;  divisor         2    1[COMMON] int 
  3063 ;;  dividend        2    3[COMMON] int 
  3064 ;; Auto vars:     Size  Location     Type
  3065 ;;  quotient        2    8[COMMON] int 
  3066 ;;  sign            1    7[COMMON] unsigned char 
  3067 ;;  counter         1    6[COMMON] unsigned char 
  3068 ;; Return value:  Size  Location     Type
  3069 ;;                  2    1[COMMON] int 
  3070 ;; Registers used:
  3071 ;;		wreg, status,2, status,0
  3072 ;; Tracked objects:
  3073 ;;		On entry : 0/0
  3074 ;;		On exit  : 0/0
  3075 ;;		Unchanged: 0/0
  3076 ;; Data sizes:     COMMON   BANK0   BANK1   BANK2
  3077 ;;      Params:         4       0       0       0
  3078 ;;      Locals:         4       0       0       0
  3079 ;;      Temps:          1       0       0       0
  3080 ;;      Totals:         9       0       0       0
  3081 ;;Total ram usage:        9 bytes
  3082 ;; Hardware stack levels used: 1
  3083 ;; Hardware stack levels required when called: 1
  3084 ;; This function calls:
  3085 ;;		Nothing
  3086 ;; This function is called by:
  3087 ;;		_showNumberDecEx
  3088 ;; This function uses a non-reentrant model
  3089 ;;
  3090                           
  3091     00E4                     ___awdiv:	
  3092                           ;psect for function ___awdiv
  3093                           
  3094     00E4                     l2097:	
  3095                           ;incstack = 0
  3096                           ; Regs used in ___awdiv: [wreg+status,2+status,0]
  3097                           
  3098     00E4  01F7               	clrf	___awdiv@sign
  3099     00E5                     l2099:
  3100     00E5  1FF2               	btfss	___awdiv@divisor+1,7
  3101     00E6  28E8               	goto	u711
  3102     00E7  28E9               	goto	u710
  3103     00E8                     u711:
  3104     00E8  28F0               	goto	l2105
  3105     00E9                     u710:
  3106     00E9                     l2101:
  3107     00E9  09F1               	comf	___awdiv@divisor,f
  3108     00EA  09F2               	comf	___awdiv@divisor+1,f
  3109     00EB  0AF1               	incf	___awdiv@divisor,f
  3110     00EC  1903               	skipnz
  3111     00ED  0AF2               	incf	___awdiv@divisor+1,f
  3112     00EE                     l2103:
  3113     00EE  01F7               	clrf	___awdiv@sign
  3114     00EF  0AF7               	incf	___awdiv@sign,f
  3115     00F0                     l2105:
  3116     00F0  1FF4               	btfss	___awdiv@dividend+1,7
  3117     00F1  28F3               	goto	u721
  3118     00F2  28F4               	goto	u720
  3119     00F3                     u721:
  3120     00F3  28FD               	goto	l2111
  3121     00F4                     u720:
  3122     00F4                     l2107:
  3123     00F4  09F3               	comf	___awdiv@dividend,f
  3124     00F5  09F4               	comf	___awdiv@dividend+1,f
  3125     00F6  0AF3               	incf	___awdiv@dividend,f
  3126     00F7  1903               	skipnz
  3127     00F8  0AF4               	incf	___awdiv@dividend+1,f
  3128     00F9                     l2109:
  3129     00F9  3001               	movlw	1
  3130     00FA  00F5               	movwf	??___awdiv
  3131     00FB  0875               	movf	??___awdiv,w
  3132     00FC  06F7               	xorwf	___awdiv@sign,f
  3133     00FD                     l2111:
  3134     00FD  01F8               	clrf	___awdiv@quotient
  3135     00FE  01F9               	clrf	___awdiv@quotient+1
  3136     00FF                     l2113:
  3137     00FF  0871               	movf	___awdiv@divisor,w
  3138     0100  0472               	iorwf	___awdiv@divisor+1,w
  3139     0101  1903               	btfsc	3,2
  3140     0102  2904               	goto	u731
  3141     0103  2905               	goto	u730
  3142     0104                     u731:
  3143     0104  2934               	goto	l2133
  3144     0105                     u730:
  3145     0105                     l2115:
  3146     0105  01F6               	clrf	___awdiv@counter
  3147     0106  0AF6               	incf	___awdiv@counter,f
  3148     0107  2911               	goto	l2121
  3149     0108                     l2117:
  3150     0108  3001               	movlw	1
  3151     0109                     u745:
  3152     0109  35F1               	lslf	___awdiv@divisor,f
  3153     010A  0DF2               	rlf	___awdiv@divisor+1,f
  3154     010B  0B89               	decfsz	9,f
  3155     010C  2909               	goto	u745
  3156     010D                     l2119:
  3157     010D  3001               	movlw	1
  3158     010E  00F5               	movwf	??___awdiv
  3159     010F  0875               	movf	??___awdiv,w
  3160     0110  07F6               	addwf	___awdiv@counter,f
  3161     0111                     l2121:
  3162     0111  1FF2               	btfss	___awdiv@divisor+1,7
  3163     0112  2914               	goto	u751
  3164     0113  2915               	goto	u750
  3165     0114                     u751:
  3166     0114  2908               	goto	l2117
  3167     0115                     u750:
  3168     0115                     l2123:
  3169     0115  3001               	movlw	1
  3170     0116                     u765:
  3171     0116  35F8               	lslf	___awdiv@quotient,f
  3172     0117  0DF9               	rlf	___awdiv@quotient+1,f
  3173     0118  0B89               	decfsz	9,f
  3174     0119  2916               	goto	u765
  3175     011A  0872               	movf	___awdiv@divisor+1,w
  3176     011B  0274               	subwf	___awdiv@dividend+1,w
  3177     011C  1D03               	skipz
  3178     011D  2920               	goto	u775
  3179     011E  0871               	movf	___awdiv@divisor,w
  3180     011F  0273               	subwf	___awdiv@dividend,w
  3181     0120                     u775:
  3182     0120  1C03               	skipc
  3183     0121  2923               	goto	u771
  3184     0122  2924               	goto	u770
  3185     0123                     u771:
  3186     0123  2929               	goto	l2129
  3187     0124                     u770:
  3188     0124                     l2125:
  3189     0124  0871               	movf	___awdiv@divisor,w
  3190     0125  02F3               	subwf	___awdiv@dividend,f
  3191     0126  0872               	movf	___awdiv@divisor+1,w
  3192     0127  3BF4               	subwfb	___awdiv@dividend+1,f
  3193     0128                     l2127:
  3194     0128  1478               	bsf	___awdiv@quotient,0
  3195     0129                     l2129:
  3196     0129  3001               	movlw	1
  3197     012A                     u785:
  3198     012A  36F2               	lsrf	___awdiv@divisor+1,f
  3199     012B  0CF1               	rrf	___awdiv@divisor,f
  3200     012C  0B89               	decfsz	9,f
  3201     012D  292A               	goto	u785
  3202     012E                     l2131:
  3203     012E  3001               	movlw	1
  3204     012F  02F6               	subwf	___awdiv@counter,f
  3205     0130  1D03               	btfss	3,2
  3206     0131  2933               	goto	u791
  3207     0132  2934               	goto	u790
  3208     0133                     u791:
  3209     0133  2915               	goto	l2123
  3210     0134                     u790:
  3211     0134                     l2133:
  3212     0134  0877               	movf	___awdiv@sign,w
  3213     0135  1903               	btfsc	3,2
  3214     0136  2938               	goto	u801
  3215     0137  2939               	goto	u800
  3216     0138                     u801:
  3217     0138  293E               	goto	l2137
  3218     0139                     u800:
  3219     0139                     l2135:
  3220     0139  09F8               	comf	___awdiv@quotient,f
  3221     013A  09F9               	comf	___awdiv@quotient+1,f
  3222     013B  0AF8               	incf	___awdiv@quotient,f
  3223     013C  1903               	skipnz
  3224     013D  0AF9               	incf	___awdiv@quotient+1,f
  3225     013E                     l2137:
  3226     013E  0879               	movf	___awdiv@quotient+1,w
  3227     013F  00F2               	movwf	?___awdiv+1
  3228     0140  0878               	movf	___awdiv@quotient,w
  3229     0141  00F1               	movwf	?___awdiv
  3230     0142                     l874:
  3231     0142  0008               	return
  3232     0143                     __end_of___awdiv:
  3233                           
  3234                           	psect	text10
  3235     0230                     __ptext10:	
  3236 ;; *************** function _Setup *****************
  3237 ;; Defined at:
  3238 ;;		line 80 in file "main.c"
  3239 ;; Parameters:    Size  Location     Type
  3240 ;;		None
  3241 ;; Auto vars:     Size  Location     Type
  3242 ;;		None
  3243 ;; Return value:  Size  Location     Type
  3244 ;;                  1    wreg      void 
  3245 ;; Registers used:
  3246 ;;		wreg, status,2, status,0, pclath, cstack
  3247 ;; Tracked objects:
  3248 ;;		On entry : 0/0
  3249 ;;		On exit  : 0/0
  3250 ;;		Unchanged: 0/0
  3251 ;; Data sizes:     COMMON   BANK0   BANK1   BANK2
  3252 ;;      Params:         0       0       0       0
  3253 ;;      Locals:         0       0       0       0
  3254 ;;      Temps:          0       0       0       0
  3255 ;;      Totals:         0       0       0       0
  3256 ;;Total ram usage:        0 bytes
  3257 ;; Hardware stack levels used: 1
  3258 ;; Hardware stack levels required when called: 3
  3259 ;; This function calls:
  3260 ;;		_SYSTEM_Initialize
  3261 ;;		_setBrightness
  3262 ;; This function is called by:
  3263 ;;		_main
  3264 ;; This function uses a non-reentrant model
  3265 ;;
  3266                           
  3267     0230                     _Setup:	
  3268                           ;psect for function _Setup
  3269                           
  3270     0230                     l2185:	
  3271                           ;incstack = 0
  3272                           ; Regs used in _Setup: [wreg+status,2+status,0+pclath+cstack]
  3273                           
  3274                           
  3275                           ;main.c: 82:     SYSTEM_Initialize();
  3276     0230  3182  2282  3182   	fcall	_SYSTEM_Initialize
  3277     0233                     l2187:
  3278                           
  3279                           ;main.c: 84:     PIE0bits.IOCIE = 1;
  3280     0233  014E               	movlb	14	; select bank14
  3281     0234  1616               	bsf	22,4	;volatile
  3282     0235                     l2189:
  3283                           
  3284                           ;main.c: 85:     IOCANbits.IOCAN5 = 1;
  3285     0235  017E               	movlb	62	; select bank62
  3286     0236  16BE               	bsf	62,5	;volatile
  3287     0237                     l2191:
  3288                           
  3289                           ;main.c: 86:     PIR0bits.IOCIF = 0;
  3290     0237  014E               	movlb	14	; select bank14
  3291     0238  120C               	bcf	12,4	;volatile
  3292     0239                     l2193:
  3293                           
  3294                           ;main.c: 87:     INTCONbits.PEIE = 1;
  3295     0239  170B               	bsf	11,6	;volatile
  3296     023A                     l2195:
  3297                           
  3298                           ;main.c: 88:     INTCONbits.GIE = 1;
  3299     023A  178B               	bsf	11,7	;volatile
  3300                           
  3301                           ;main.c: 92:     setBrightness(0x03, 1);
  3302     023B  01F1               	clrf	setBrightness@on
  3303     023C  0AF1               	incf	setBrightness@on,f
  3304     023D  3003               	movlw	3
  3305     023E  3182  2242  3182   	fcall	_setBrightness
  3306     0241                     l650:
  3307     0241  0008               	return
  3308     0242                     __end_of_Setup:
  3309                           
  3310                           	psect	text11
  3311     0242                     __ptext11:	
  3312 ;; *************** function _setBrightness *****************
  3313 ;; Defined at:
  3314 ;;		line 41 in file "TM1637Display.c"
  3315 ;; Parameters:    Size  Location     Type
  3316 ;;  brightness      1    wreg     unsigned char 
  3317 ;;  on              1    1[COMMON] _Bool 
  3318 ;; Auto vars:     Size  Location     Type
  3319 ;;  brightness      1    2[COMMON] unsigned char 
  3320 ;; Return value:  Size  Location     Type
  3321 ;;                  1    wreg      void 
  3322 ;; Registers used:
  3323 ;;		wreg, status,2, status,0
  3324 ;; Tracked objects:
  3325 ;;		On entry : 0/0
  3326 ;;		On exit  : 0/0
  3327 ;;		Unchanged: 0/0
  3328 ;; Data sizes:     COMMON   BANK0   BANK1   BANK2
  3329 ;;      Params:         1       0       0       0
  3330 ;;      Locals:         3       0       0       0
  3331 ;;      Temps:          0       0       0       0
  3332 ;;      Totals:         4       0       0       0
  3333 ;;Total ram usage:        4 bytes
  3334 ;; Hardware stack levels used: 1
  3335 ;; Hardware stack levels required when called: 1
  3336 ;; This function calls:
  3337 ;;		Nothing
  3338 ;; This function is called by:
  3339 ;;		_Setup
  3340 ;; This function uses a non-reentrant model
  3341 ;;
  3342                           
  3343     0242                     _setBrightness:	
  3344                           ;psect for function _setBrightness
  3345                           
  3346                           
  3347                           ;incstack = 0
  3348                           ; Regs used in _setBrightness: [wreg+status,2+status,0]
  3349                           ;setBrightness@brightness stored from wreg
  3350     0242  00F2               	movwf	setBrightness@brightness
  3351     0243                     l2059:
  3352                           
  3353                           ;TM1637Display.c: 41: void setBrightness(uint8_t brightness, _Bool on);TM1637Display.c: 
      +                          42: {;TM1637Display.c: 43:  m_brightness = (brightness & 0x7) | (on? 0x08 : 0x00);
  3354     0243  0871               	movf	setBrightness@on,w
  3355     0244  1D03               	btfss	3,2
  3356     0245  2A47               	goto	u651
  3357     0246  2A48               	goto	u650
  3358     0247                     u651:
  3359     0247  2A4B               	goto	l2063
  3360     0248                     u650:
  3361     0248                     l2061:
  3362     0248  01F3               	clrf	_setBrightness$1050
  3363     0249  01F4               	clrf	_setBrightness$1050+1
  3364     024A  2A4F               	goto	l2065
  3365     024B                     l2063:
  3366     024B  3008               	movlw	8
  3367     024C  00F3               	movwf	_setBrightness$1050
  3368     024D  3000               	movlw	0
  3369     024E  00F4               	movwf	_setBrightness$1050+1
  3370     024F                     l2065:
  3371     024F  0872               	movf	setBrightness@brightness,w
  3372     0250  3907               	andlw	7
  3373     0251  0473               	iorwf	_setBrightness$1050,w
  3374     0252  00FC               	movwf	_m_brightness
  3375     0253                     l526:
  3376     0253  0008               	return
  3377     0254                     __end_of_setBrightness:
  3378                           
  3379                           	psect	text12
  3380     0282                     __ptext12:	
  3381 ;; *************** function _SYSTEM_Initialize *****************
  3382 ;; Defined at:
  3383 ;;		line 50 in file "mcc_generated_files/mcc.c"
  3384 ;; Parameters:    Size  Location     Type
  3385 ;;		None
  3386 ;; Auto vars:     Size  Location     Type
  3387 ;;		None
  3388 ;; Return value:  Size  Location     Type
  3389 ;;                  1    wreg      void 
  3390 ;; Registers used:
  3391 ;;		wreg, status,2, status,0, pclath, cstack
  3392 ;; Tracked objects:
  3393 ;;		On entry : 0/0
  3394 ;;		On exit  : 0/0
  3395 ;;		Unchanged: 0/0
  3396 ;; Data sizes:     COMMON   BANK0   BANK1   BANK2
  3397 ;;      Params:         0       0       0       0
  3398 ;;      Locals:         0       0       0       0
  3399 ;;      Temps:          0       0       0       0
  3400 ;;      Totals:         0       0       0       0
  3401 ;;Total ram usage:        0 bytes
  3402 ;; Hardware stack levels used: 1
  3403 ;; Hardware stack levels required when called: 2
  3404 ;; This function calls:
  3405 ;;		_I2C1_Initialize
  3406 ;;		_OSCILLATOR_Initialize
  3407 ;;		_PIN_MANAGER_Initialize
  3408 ;;		_PMD_Initialize
  3409 ;; This function is called by:
  3410 ;;		_Setup
  3411 ;; This function uses a non-reentrant model
  3412 ;;
  3413                           
  3414     0282                     _SYSTEM_Initialize:	
  3415                           ;psect for function _SYSTEM_Initialize
  3416                           
  3417     0282                     l2051:	
  3418                           ;incstack = 0
  3419                           ; Regs used in _SYSTEM_Initialize: [wreg+status,2+status,0+pclath+cstack]
  3420                           
  3421                           
  3422                           ;mcc_generated_files/mcc.c: 52:     PMD_Initialize();
  3423     0282  3182  22B5  3182   	fcall	_PMD_Initialize
  3424     0285                     l2053:
  3425                           
  3426                           ;mcc_generated_files/mcc.c: 53:     I2C1_Initialize();
  3427     0285  3182  22A4  3182   	fcall	_I2C1_Initialize
  3428     0288                     l2055:
  3429                           
  3430                           ;mcc_generated_files/mcc.c: 54:     PIN_MANAGER_Initialize();
  3431     0288  3182  2274  3182   	fcall	_PIN_MANAGER_Initialize
  3432     028B                     l2057:
  3433                           
  3434                           ;mcc_generated_files/mcc.c: 55:     OSCILLATOR_Initialize();
  3435     028B  3182  229A  3182   	fcall	_OSCILLATOR_Initialize
  3436     028E                     l472:
  3437     028E  0008               	return
  3438     028F                     __end_of_SYSTEM_Initialize:
  3439                           
  3440                           	psect	text13
  3441     02B5                     __ptext13:	
  3442 ;; *************** function _PMD_Initialize *****************
  3443 ;; Defined at:
  3444 ;;		line 74 in file "mcc_generated_files/mcc.c"
  3445 ;; Parameters:    Size  Location     Type
  3446 ;;		None
  3447 ;; Auto vars:     Size  Location     Type
  3448 ;;		None
  3449 ;; Return value:  Size  Location     Type
  3450 ;;                  1    wreg      void 
  3451 ;; Registers used:
  3452 ;;		status,2
  3453 ;; Tracked objects:
  3454 ;;		On entry : 0/0
  3455 ;;		On exit  : 0/0
  3456 ;;		Unchanged: 0/0
  3457 ;; Data sizes:     COMMON   BANK0   BANK1   BANK2
  3458 ;;      Params:         0       0       0       0
  3459 ;;      Locals:         0       0       0       0
  3460 ;;      Temps:          0       0       0       0
  3461 ;;      Totals:         0       0       0       0
  3462 ;;Total ram usage:        0 bytes
  3463 ;; Hardware stack levels used: 1
  3464 ;; Hardware stack levels required when called: 1
  3465 ;; This function calls:
  3466 ;;		Nothing
  3467 ;; This function is called by:
  3468 ;;		_SYSTEM_Initialize
  3469 ;; This function uses a non-reentrant model
  3470 ;;
  3471                           
  3472     02B5                     _PMD_Initialize:	
  3473                           ;psect for function _PMD_Initialize
  3474                           
  3475     02B5                     l1983:	
  3476                           ;incstack = 0
  3477                           ; Regs used in _PMD_Initialize: [status,2]
  3478                           
  3479                           
  3480                           ;mcc_generated_files/mcc.c: 77:     PMD0 = 0x00;
  3481     02B5  014F               	movlb	15	; select bank15
  3482     02B6  0196               	clrf	22	;volatile
  3483                           
  3484                           ;mcc_generated_files/mcc.c: 79:     PMD1 = 0x00;
  3485     02B7  0197               	clrf	23	;volatile
  3486                           
  3487                           ;mcc_generated_files/mcc.c: 81:     PMD2 = 0x00;
  3488     02B8  0198               	clrf	24	;volatile
  3489                           
  3490                           ;mcc_generated_files/mcc.c: 83:     PMD3 = 0x00;
  3491     02B9  0199               	clrf	25	;volatile
  3492                           
  3493                           ;mcc_generated_files/mcc.c: 85:     PMD4 = 0x00;
  3494     02BA  019A               	clrf	26	;volatile
  3495                           
  3496                           ;mcc_generated_files/mcc.c: 87:     PMD5 = 0x00;
  3497     02BB  019B               	clrf	27	;volatile
  3498     02BC                     l478:
  3499     02BC  0008               	return
  3500     02BD                     __end_of_PMD_Initialize:
  3501                           
  3502                           	psect	text14
  3503     0274                     __ptext14:	
  3504 ;; *************** function _PIN_MANAGER_Initialize *****************
  3505 ;; Defined at:
  3506 ;;		line 58 in file "mcc_generated_files/pin_manager.c"
  3507 ;; Parameters:    Size  Location     Type
  3508 ;;		None
  3509 ;; Auto vars:     Size  Location     Type
  3510 ;;		None
  3511 ;; Return value:  Size  Location     Type
  3512 ;;                  1    wreg      void 
  3513 ;; Registers used:
  3514 ;;		wreg, status,2
  3515 ;; Tracked objects:
  3516 ;;		On entry : 0/0
  3517 ;;		On exit  : 0/0
  3518 ;;		Unchanged: 0/0
  3519 ;; Data sizes:     COMMON   BANK0   BANK1   BANK2
  3520 ;;      Params:         0       0       0       0
  3521 ;;      Locals:         0       0       0       0
  3522 ;;      Temps:          0       0       0       0
  3523 ;;      Totals:         0       0       0       0
  3524 ;;Total ram usage:        0 bytes
  3525 ;; Hardware stack levels used: 1
  3526 ;; Hardware stack levels required when called: 1
  3527 ;; This function calls:
  3528 ;;		Nothing
  3529 ;; This function is called by:
  3530 ;;		_SYSTEM_Initialize
  3531 ;; This function uses a non-reentrant model
  3532 ;;
  3533                           
  3534     0274                     _PIN_MANAGER_Initialize:	
  3535                           ;psect for function _PIN_MANAGER_Initialize
  3536                           
  3537     0274                     l1985:	
  3538                           ;incstack = 0
  3539                           ; Regs used in _PIN_MANAGER_Initialize: [wreg+status,2]
  3540                           
  3541                           
  3542                           ;mcc_generated_files/pin_manager.c: 63:     LATA = 0x00;
  3543     0274  0140               	movlb	0	; select bank0
  3544     0275  0198               	clrf	24	;volatile
  3545     0276                     l1987:
  3546                           
  3547                           ;mcc_generated_files/pin_manager.c: 68:     TRISA = 0x30;
  3548     0276  3030               	movlw	48
  3549     0277  0092               	movwf	18	;volatile
  3550     0278                     l1989:
  3551                           
  3552                           ;mcc_generated_files/pin_manager.c: 73:     ANSELA = 0x00;
  3553     0278  017E               	movlb	62	; select bank62
  3554     0279  01B8               	clrf	56	;volatile
  3555                           
  3556                           ;mcc_generated_files/pin_manager.c: 78:     WPUA = 0x30;
  3557     027A  3030               	movlw	48
  3558     027B  00B9               	movwf	57	;volatile
  3559     027C                     l1991:
  3560                           
  3561                           ;mcc_generated_files/pin_manager.c: 83:     ODCONA = 0x00;
  3562     027C  01BA               	clrf	58	;volatile
  3563     027D                     l1993:
  3564                           
  3565                           ;mcc_generated_files/pin_manager.c: 88:     SLRCONA = 0x37;
  3566     027D  3037               	movlw	55
  3567     027E  00BB               	movwf	59	;volatile
  3568     027F                     l1995:
  3569                           
  3570                           ;mcc_generated_files/pin_manager.c: 93:     INLVLA = 0x3F;
  3571     027F  303F               	movlw	63
  3572     0280  00BC               	movwf	60	;volatile
  3573     0281                     l499:
  3574     0281  0008               	return
  3575     0282                     __end_of_PIN_MANAGER_Initialize:
  3576                           
  3577                           	psect	text15
  3578     029A                     __ptext15:	
  3579 ;; *************** function _OSCILLATOR_Initialize *****************
  3580 ;; Defined at:
  3581 ;;		line 58 in file "mcc_generated_files/mcc.c"
  3582 ;; Parameters:    Size  Location     Type
  3583 ;;		None
  3584 ;; Auto vars:     Size  Location     Type
  3585 ;;		None
  3586 ;; Return value:  Size  Location     Type
  3587 ;;                  1    wreg      void 
  3588 ;; Registers used:
  3589 ;;		wreg, status,2
  3590 ;; Tracked objects:
  3591 ;;		On entry : 0/0
  3592 ;;		On exit  : 0/0
  3593 ;;		Unchanged: 0/0
  3594 ;; Data sizes:     COMMON   BANK0   BANK1   BANK2
  3595 ;;      Params:         0       0       0       0
  3596 ;;      Locals:         0       0       0       0
  3597 ;;      Temps:          0       0       0       0
  3598 ;;      Totals:         0       0       0       0
  3599 ;;Total ram usage:        0 bytes
  3600 ;; Hardware stack levels used: 1
  3601 ;; Hardware stack levels required when called: 1
  3602 ;; This function calls:
  3603 ;;		Nothing
  3604 ;; This function is called by:
  3605 ;;		_SYSTEM_Initialize
  3606 ;; This function uses a non-reentrant model
  3607 ;;
  3608                           
  3609     029A                     _OSCILLATOR_Initialize:	
  3610                           ;psect for function _OSCILLATOR_Initialize
  3611                           
  3612     029A                     l1997:	
  3613                           ;incstack = 0
  3614                           ; Regs used in _OSCILLATOR_Initialize: [wreg+status,2]
  3615                           
  3616                           
  3617                           ;mcc_generated_files/mcc.c: 61:     OSCCON1 = 0x62;
  3618     029A  3062               	movlw	98
  3619     029B  0151               	movlb	17	; select bank17
  3620     029C  008D               	movwf	13	;volatile
  3621     029D                     l1999:
  3622                           
  3623                           ;mcc_generated_files/mcc.c: 63:     OSCCON3 = 0x00;
  3624     029D  018F               	clrf	15	;volatile
  3625     029E                     l2001:
  3626                           
  3627                           ;mcc_generated_files/mcc.c: 65:     OSCEN = 0x00;
  3628     029E  0191               	clrf	17	;volatile
  3629                           
  3630                           ;mcc_generated_files/mcc.c: 67:     OSCFRQ = 0x06;
  3631     029F  3006               	movlw	6
  3632     02A0  0093               	movwf	19	;volatile
  3633     02A1                     l2003:
  3634                           
  3635                           ;mcc_generated_files/mcc.c: 69:     OSCSTAT = 0x00;
  3636     02A1  0190               	clrf	16	;volatile
  3637     02A2                     l2005:
  3638                           
  3639                           ;mcc_generated_files/mcc.c: 71:     OSCTUNE = 0x00;
  3640     02A2  0192               	clrf	18	;volatile
  3641     02A3                     l475:
  3642     02A3  0008               	return
  3643     02A4                     __end_of_OSCILLATOR_Initialize:
  3644                           
  3645                           	psect	text16
  3646     02A4                     __ptext16:	
  3647 ;; *************** function _I2C1_Initialize *****************
  3648 ;; Defined at:
  3649 ;;		line 167 in file "mcc_generated_files/i2c1_master.c"
  3650 ;; Parameters:    Size  Location     Type
  3651 ;;		None
  3652 ;; Auto vars:     Size  Location     Type
  3653 ;;		None
  3654 ;; Return value:  Size  Location     Type
  3655 ;;                  1    wreg      void 
  3656 ;; Registers used:
  3657 ;;		wreg, status,2
  3658 ;; Tracked objects:
  3659 ;;		On entry : 0/0
  3660 ;;		On exit  : 0/0
  3661 ;;		Unchanged: 0/0
  3662 ;; Data sizes:     COMMON   BANK0   BANK1   BANK2
  3663 ;;      Params:         0       0       0       0
  3664 ;;      Locals:         0       0       0       0
  3665 ;;      Temps:          0       0       0       0
  3666 ;;      Totals:         0       0       0       0
  3667 ;;Total ram usage:        0 bytes
  3668 ;; Hardware stack levels used: 1
  3669 ;; Hardware stack levels required when called: 1
  3670 ;; This function calls:
  3671 ;;		Nothing
  3672 ;; This function is called by:
  3673 ;;		_SYSTEM_Initialize
  3674 ;; This function uses a non-reentrant model
  3675 ;;
  3676                           
  3677     02A4                     _I2C1_Initialize:	
  3678                           ;psect for function _I2C1_Initialize
  3679                           
  3680     02A4                     l1975:	
  3681                           ;incstack = 0
  3682                           ; Regs used in _I2C1_Initialize: [wreg+status,2]
  3683                           
  3684                           
  3685                           ;mcc_generated_files/i2c1_master.c: 169:     SSP1STAT = 0x00;
  3686     02A4  0143               	movlb	3	; select bank3
  3687     02A5  018F               	clrf	15	;volatile
  3688     02A6                     l1977:
  3689                           
  3690                           ;mcc_generated_files/i2c1_master.c: 170:     SSP1CON1 = 0x08;
  3691     02A6  3008               	movlw	8
  3692     02A7  0090               	movwf	16	;volatile
  3693     02A8                     l1979:
  3694                           
  3695                           ;mcc_generated_files/i2c1_master.c: 171:     SSP1CON2 = 0x00;
  3696     02A8  0191               	clrf	17	;volatile
  3697                           
  3698                           ;mcc_generated_files/i2c1_master.c: 172:     SSP1ADD = 0x13;
  3699     02A9  3013               	movlw	19
  3700     02AA  008D               	movwf	13	;volatile
  3701     02AB                     l1981:
  3702                           
  3703                           ;mcc_generated_files/i2c1_master.c: 173:     SSP1CON1bits.SSPEN = 0;
  3704     02AB  1290               	bcf	16,5	;volatile
  3705     02AC                     l207:
  3706     02AC  0008               	return
  3707     02AD                     __end_of_I2C1_Initialize:
  3708                           
  3709                           	psect	intentry
  3710     0004                     __pintentry:	
  3711 ;; *************** function _ISR *****************
  3712 ;; Defined at:
  3713 ;;		line 42 in file "main.c"
  3714 ;; Parameters:    Size  Location     Type
  3715 ;;		None
  3716 ;; Auto vars:     Size  Location     Type
  3717 ;;		None
  3718 ;; Return value:  Size  Location     Type
  3719 ;;                  1    wreg      void 
  3720 ;; Registers used:
  3721 ;;		wreg, status,2
  3722 ;; Tracked objects:
  3723 ;;		On entry : 0/0
  3724 ;;		On exit  : 0/0
  3725 ;;		Unchanged: 0/0
  3726 ;; Data sizes:     COMMON   BANK0   BANK1   BANK2
  3727 ;;      Params:         0       0       0       0
  3728 ;;      Locals:         0       0       0       0
  3729 ;;      Temps:          1       0       0       0
  3730 ;;      Totals:         1       0       0       0
  3731 ;;Total ram usage:        1 bytes
  3732 ;; Hardware stack levels used: 1
  3733 ;; This function calls:
  3734 ;;		Nothing
  3735 ;; This function is called by:
  3736 ;;		Interrupt level 1
  3737 ;; This function uses a non-reentrant model
  3738 ;;
  3739                           
  3740     0004                     _ISR:
  3741                           
  3742                           ;incstack = 0
  3743     0004  147E               	bsf	int$flags,0	;set compiler interrupt flag (level 1)
  3744                           
  3745                           ; Regs used in _ISR: [wreg+status,2]
  3746     0005  3180               	pagesel	$
  3747     0006                     i1l2199:
  3748                           
  3749                           ;main.c: 45:   if((PIE0bits.IOCIE == 1) && (IOCANbits.IOCAN5 == 1) && (IOCAFbits.IOCAF5 
      +                          == 1)) {
  3750     0006  014E               	movlb	14	; select bank14
  3751     0007  1E16               	btfss	22,4	;volatile
  3752     0008  280A               	goto	u86_21
  3753     0009  280B               	goto	u86_20
  3754     000A                     u86_21:
  3755     000A  284B               	goto	i1l636
  3756     000B                     u86_20:
  3757     000B                     i1l2201:
  3758     000B  017E               	movlb	62	; select bank62
  3759     000C  1EBE               	btfss	62,5	;volatile
  3760     000D  280F               	goto	u87_21
  3761     000E  2810               	goto	u87_20
  3762     000F                     u87_21:
  3763     000F  284B               	goto	i1l636
  3764     0010                     u87_20:
  3765     0010                     i1l2203:
  3766     0010  1EBF               	btfss	63,5	;volatile
  3767     0011  2813               	goto	u88_21
  3768     0012  2814               	goto	u88_20
  3769     0013                     u88_21:
  3770     0013  284B               	goto	i1l636
  3771     0014                     u88_20:
  3772     0014                     i1l2205:
  3773                           
  3774                           ;main.c: 46:         IOCAFbits.IOCAF5 = 0;
  3775     0014  12BF               	bcf	63,5	;volatile
  3776                           
  3777                           ;main.c: 47:         PIR0bits.IOCIF = 0;
  3778     0015  014E               	movlb	14	; select bank14
  3779     0016  120C               	bcf	12,4	;volatile
  3780     0017                     i1l2207:
  3781                           
  3782                           ;main.c: 49:         if(PORTAbits.RA5 == PORTAbits.RA4)counter--;
  3783     0017  0140               	movlb	0	; select bank0
  3784     0018  1A0C               	btfsc	12,4	;volatile
  3785     0019  281B               	goto	u89_21
  3786     001A  281D               	goto	u89_20
  3787     001B                     u89_21:
  3788     001B  3001               	movlw	1
  3789     001C  281E               	goto	u89_22
  3790     001D                     u89_20:
  3791     001D  3000               	movlw	0
  3792     001E                     u89_22:
  3793     001E  00F0               	movwf	??_ISR
  3794     001F  1A8C               	btfsc	12,5	;volatile
  3795     0020  2822               	goto	u90_21
  3796     0021  2824               	goto	u90_20
  3797     0022                     u90_21:
  3798     0022  3001               	movlw	1
  3799     0023  2825               	goto	u90_22
  3800     0024                     u90_20:
  3801     0024  3000               	movlw	0
  3802     0025                     u90_22:
  3803     0025  0670               	xorwf	??_ISR,w
  3804     0026  1D03               	skipz
  3805     0027  2829               	goto	u91_21
  3806     0028  282A               	goto	u91_20
  3807     0029                     u91_21:
  3808     0029  282F               	goto	i1l2211
  3809     002A                     u91_20:
  3810     002A                     i1l2209:
  3811     002A  30FF               	movlw	255
  3812     002B  07BF               	addwf	_counter,f
  3813     002C  30FF               	movlw	255
  3814     002D  3DC0               	addwfc	_counter+1,f
  3815     002E  2833               	goto	i1l2213
  3816     002F                     i1l2211:
  3817     002F  3001               	movlw	1
  3818     0030  07BF               	addwf	_counter,f
  3819     0031  3000               	movlw	0
  3820     0032  3DC0               	addwfc	_counter+1,f
  3821     0033                     i1l2213:
  3822                           
  3823                           ;main.c: 52:         if (counter <= -1) counter = 2499;
  3824     0033  1FC0               	btfss	_counter+1,7
  3825     0034  2836               	goto	u92_21
  3826     0035  2837               	goto	u92_20
  3827     0036                     u92_21:
  3828     0036  283B               	goto	i1l634
  3829     0037                     u92_20:
  3830     0037                     i1l2215:
  3831     0037  30C3               	movlw	195
  3832     0038  00BF               	movwf	_counter
  3833     0039  3009               	movlw	9
  3834     003A  00C0               	movwf	_counter+1
  3835     003B                     i1l634:
  3836                           
  3837                           ;main.c: 53:         if (counter >= 2500) counter = 0;
  3838     003B  0840               	movf	_counter+1,w
  3839     003C  3A80               	xorlw	128
  3840     003D  00F0               	movwf	??_ISR
  3841     003E  3089               	movlw	137
  3842     003F  0270               	subwf	??_ISR,w
  3843     0040  1D03               	skipz
  3844     0041  2844               	goto	u93_25
  3845     0042  30C4               	movlw	196
  3846     0043  023F               	subwf	_counter,w
  3847     0044                     u93_25:
  3848     0044  1C03               	skipc
  3849     0045  2847               	goto	u93_21
  3850     0046  2848               	goto	u93_20
  3851     0047                     u93_21:
  3852     0047  284B               	goto	i1l636
  3853     0048                     u93_20:
  3854     0048                     i1l2217:
  3855     0048  0140               	movlb	0	; select bank0
  3856     0049  01BF               	clrf	_counter
  3857     004A  01C0               	clrf	_counter+1
  3858     004B                     i1l636:
  3859     004B  107E               	bcf	int$flags,0	;clear compiler interrupt flag (level 1)
  3860     004C  0009               	retfie
  3861     004D                     __end_of_ISR:
  3862     007E                     btemp	set	126	;btemp
  3863     007E                     int$flags	set	126
  3864     007E                     wtemp0	set	126
  3865                           
  3866                           	psect	config
  3867                           
  3868                           ;Config register CONFIG1 @ 0x8007
  3869                           ;	External Oscillator mode selection bits
  3870                           ;	FEXTOSC = OFF, Oscillator not enabled
  3871                           ;	Power-up default value for COSC bits
  3872                           ;	RSTOSC = HFINT1, HFINTOSC (1MHz)
  3873                           ;	Clock Out Enable bit
  3874                           ;	CLKOUTEN = OFF, CLKOUT function is disabled; i/o or oscillator function on OSC2
  3875                           ;	Clock Switch Enable bit
  3876                           ;	CSWEN = ON, Writing to NOSC and NDIV is allowed
  3877                           ;	Fail-Safe Clock Monitor Enable bit
  3878                           ;	FCMEN = ON, FSCM timer enabled
  3879     8007                     	org	32775
  3880     8007  3FEC               	dw	16364
  3881                           
  3882                           ;Config register CONFIG2 @ 0x8008
  3883                           ;	Master Clear Enable bit
  3884                           ;	MCLRE = ON, MCLR pin is Master Clear function
  3885                           ;	Power-up Timer Enable bit
  3886                           ;	PWRTE = OFF, PWRT disabled
  3887                           ;	Low-Power BOR enable bit
  3888                           ;	LPBOREN = OFF, ULPBOR disabled
  3889                           ;	Brown-out reset enable bits
  3890                           ;	BOREN = ON, Brown-out Reset Enabled, SBOREN bit is ignored
  3891                           ;	Brown-out Reset Voltage Selection
  3892                           ;	BORV = LO, Brown-out Reset Voltage (VBOR) set to 1.9V on LF, and 2.45V on F Devices
  3893                           ;	Zero-cross detect disable
  3894                           ;	ZCD = OFF, Zero-cross detect circuit is disabled at POR.
  3895                           ;	Peripheral Pin Select one-way control
  3896                           ;	PPS1WAY = ON, The PPSLOCK bit can be cleared and set only once in software
  3897                           ;	Stack Overflow/Underflow Reset Enable bit
  3898                           ;	STVREN = ON, Stack Overflow or Underflow will cause a reset
  3899     8008                     	org	32776
  3900     8008  3FFF               	dw	16383
  3901                           
  3902                           ;Config register CONFIG3 @ 0x8009
  3903                           ;	WDT Period Select bits
  3904                           ;	WDTCPS = WDTCPS_31, Divider ratio 1:65536; software control of WDTPS
  3905                           ;	WDT operating mode
  3906                           ;	WDTE = OFF, WDT Disabled, SWDTEN is ignored
  3907                           ;	WDT Window Select bits
  3908                           ;	WDTCWS = WDTCWS_7, window always open (100%); software control; keyed access not requi
      +                          red
  3909                           ;	WDT input clock selector
  3910                           ;	WDTCCS = SC, Software Control
  3911     8009                     	org	32777
  3912     8009  3F9F               	dw	16287
  3913                           
  3914                           ;Config register CONFIG4 @ 0x800A
  3915                           ;	Boot Block Size Selection bits
  3916                           ;	BBSIZE = BB512, 512 words boot block size
  3917                           ;	Boot Block Enable bit
  3918                           ;	BBEN = OFF, Boot Block disabled
  3919                           ;	SAF Enable bit
  3920                           ;	SAFEN = OFF, SAF disabled
  3921                           ;	Application Block Write Protection bit
  3922                           ;	WRTAPP = OFF, Application Block not write protected
  3923                           ;	Boot Block Write Protection bit
  3924                           ;	WRTB = OFF, Boot Block not write protected
  3925                           ;	Configuration Register Write Protection bit
  3926                           ;	WRTC = OFF, Configuration Register not write protected
  3927                           ;	Storage Area Flash Write Protection bit
  3928                           ;	WRTSAF = OFF, SAF not write protected
  3929                           ;	Low Voltage Programming Enable bit
  3930                           ;	LVP = ON, Low Voltage programming enabled. MCLR/Vpp pin function is MCLR.
  3931     800A                     	org	32778
  3932     800A  3FFF               	dw	16383
  3933                           
  3934                           ;Config register CONFIG5 @ 0x800B
  3935                           ;	UserNVM Program memory code protection bit
  3936                           ;	CP = OFF, UserNVM code protection disabled
  3937     800B                     	org	32779
  3938     800B  3FFF               	dw	16383

Data Sizes:
    Strings     0
    Constant    60
    Data        0
    BSS         38
    Persistent  32
    Stack       0

Auto Spaces:
    Space          Size  Autos    Used
    COMMON           14     12      13
    BANK0            80     25      62
    BANK1            80      0       0
    BANK2            80      0       0

Pointer List with Targets:

    bufferBlock$data	PTR unsigned char  size(2) Largest target is 0

    cb$0	PTR void  size(1) Largest target is 4
		 -> I2C1_Read1ByteRegister@returnValue(COMMON[1]), I2C1_Read2ByteRegister@returnValue(COMMON[2]), I2C1_ReadDataBlock@bufferBlock(COMMON[4]), I2C1_Write1ByteRegister@data(COMMON[1]), 
		 -> I2C1_Write2ByteRegister@data(COMMON[2]), NULL(NULL[0]), 

    cb$0	PTR void  size(1) Largest target is 4
		 -> I2C1_Read1ByteRegister@returnValue(COMMON[1]), I2C1_Read2ByteRegister@returnValue(COMMON[2]), I2C1_ReadDataBlock@bufferBlock(COMMON[4]), I2C1_Write1ByteRegister@data(COMMON[1]), 
		 -> I2C1_Write2ByteRegister@data(COMMON[2]), NULL(NULL[0]), 

    I2C1_DO_TX$1731$0	PTR void  size(1) Largest target is 4
		 -> I2C1_Read1ByteRegister@returnValue(COMMON[1]), I2C1_Read2ByteRegister@returnValue(COMMON[2]), I2C1_ReadDataBlock@bufferBlock(COMMON[4]), I2C1_Write1ByteRegister@data(COMMON[1]), 
		 -> I2C1_Write2ByteRegister@data(COMMON[2]), NULL(NULL[0]), 

    i2c1_fsmStateTable	const PTR FTN()enum E6254[16] size(2) Largest target is 1
		 -> I2C1_DO_ADDRESS_NACK(), I2C1_DO_IDLE(), I2C1_DO_RCEN(), I2C1_DO_RESET(), 
		 -> I2C1_DO_RX(), I2C1_DO_RX_ACK(), I2C1_DO_RX_NACK_RESTART(), I2C1_DO_RX_NACK_STOP(), 
		 -> I2C1_DO_SEND_ADR_READ(), I2C1_DO_SEND_ADR_WRITE(), I2C1_DO_SEND_RESTART(), I2C1_DO_SEND_RESTART_READ(), 
		 -> I2C1_DO_SEND_RESTART_WRITE(), I2C1_DO_SEND_STOP(), I2C1_DO_TX(), I2C1_DO_TX_EMPTY(), 

    I2C1_Read1ByteRegister@returnValue$data	PTR unsigned char  size(2) Largest target is 0

    I2C1_Read2ByteRegister@returnValue$data	PTR unsigned char  size(2) Largest target is 0

    I2C1_Status$callbackPayload	PTR void [6] size(1) Largest target is 4
		 -> I2C1_Read1ByteRegister@returnValue(COMMON[1]), I2C1_Read2ByteRegister@returnValue(COMMON[2]), I2C1_ReadDataBlock@bufferBlock(COMMON[4]), I2C1_Write1ByteRegister@data(COMMON[1]), 
		 -> I2C1_Write2ByteRegister@data(COMMON[2]), NULL(NULL[0]), 

    I2C1_Status$callbackTable	PTR FTN(PTR void ,)enum E363[6] size(2) Largest target is 1
		 -> I2C1_CallbackReturnReset(), I2C1_CallbackReturnStop(), rd1RegCompleteHandler(), rd2RegCompleteHandler(), 
		 -> rdBlkRegCompleteHandler(), wr1RegCompleteHandler(), wr2RegCompleteHandler(), NULL(), 

    I2C1_Status$data_ptr	PTR unsigned char  size(1) Largest target is 4
		 -> bufferBlock$data(COMMON[2]), I2C1_Read1ByteRegister@reg(COMMON[1]), I2C1_Read1ByteRegister@returnValue(COMMON[1]), I2C1_Read1ByteRegister@returnValue$data(COMMON[2]), 
		 -> I2C1_Read2ByteRegister@reg(COMMON[1]), I2C1_Read2ByteRegister@returnValue(COMMON[2]), I2C1_Read2ByteRegister@returnValue$data(COMMON[2]), I2C1_ReadDataBlock@bufferBlock(COMMON[4]), 
		 -> I2C1_ReadDataBlock@reg(COMMON[1]), I2C1_Write1ByteRegister@data(COMMON[1]), I2C1_Write1ByteRegister@data$data(COMMON[2]), I2C1_Write1ByteRegister@reg(COMMON[1]), 
		 -> I2C1_Write2ByteRegister@data(COMMON[2]), I2C1_Write2ByteRegister@data$data(COMMON[2]), I2C1_Write2ByteRegister@reg(COMMON[1]), NULL(NULL[0]), 

    I2C1_Write1ByteRegister@data$data	PTR unsigned char  size(2) Largest target is 0

    I2C1_Write2ByteRegister@data$data	PTR unsigned char  size(2) Largest target is 0

    IOCAF4_InterruptHandler	PTR FTN()void  size(2) Largest target is 1
		 -> NULL(), 

    IOCAF5_InterruptHandler	PTR FTN()void  size(2) Largest target is 1
		 -> NULL(), 

    NULL$0	PTR void  size(1) Largest target is 4
		 -> I2C1_Read1ByteRegister@returnValue(COMMON[1]), I2C1_Read2ByteRegister@returnValue(COMMON[2]), I2C1_ReadDataBlock@bufferBlock(COMMON[4]), I2C1_Write1ByteRegister@data(COMMON[1]), 
		 -> I2C1_Write2ByteRegister@data(COMMON[2]), NULL(NULL[0]), 

    rdBlkRegCompleteHandler@ptr$data	PTR unsigned char  size(2) Largest target is 0

    S246$0$0	PTR void  size(1) Largest target is 4
		 -> I2C1_Read1ByteRegister@returnValue(COMMON[1]), I2C1_Read2ByteRegister@returnValue(COMMON[2]), I2C1_ReadDataBlock@bufferBlock(COMMON[4]), I2C1_Write1ByteRegister@data(COMMON[1]), 
		 -> I2C1_Write2ByteRegister@data(COMMON[2]), NULL(NULL[0]), 

    S246$callbackPayload	PTR void [6] size(1) Largest target is 4
		 -> I2C1_Read1ByteRegister@returnValue(COMMON[1]), I2C1_Read2ByteRegister@returnValue(COMMON[2]), I2C1_ReadDataBlock@bufferBlock(COMMON[4]), I2C1_Write1ByteRegister@data(COMMON[1]), 
		 -> I2C1_Write2ByteRegister@data(COMMON[2]), NULL(NULL[0]), 

    S246$callbackTable	PTR FTN(PTR void ,)enum E363[6] size(2) Largest target is 1
		 -> I2C1_CallbackReturnReset(), I2C1_CallbackReturnStop(), rd1RegCompleteHandler(), rd2RegCompleteHandler(), 
		 -> rdBlkRegCompleteHandler(), wr1RegCompleteHandler(), wr2RegCompleteHandler(), NULL(), 

    S246$data_ptr	PTR unsigned char  size(1) Largest target is 4
		 -> I2C1_Read1ByteRegister@reg(COMMON[1]), I2C1_Read1ByteRegister@returnValue(COMMON[1]), I2C1_Read2ByteRegister@reg(COMMON[1]), I2C1_Read2ByteRegister@returnValue(COMMON[2]), 
		 -> I2C1_ReadDataBlock@bufferBlock(COMMON[4]), I2C1_ReadDataBlock@reg(COMMON[1]), I2C1_Write1ByteRegister@data(COMMON[1]), I2C1_Write1ByteRegister@reg(COMMON[1]), 
		 -> I2C1_Write2ByteRegister@data(COMMON[2]), I2C1_Write2ByteRegister@reg(COMMON[1]), NULL(NULL[0]), 

    S94$data	PTR unsigned char  size(2) Largest target is 0

    setSegments@segments	PTR const unsigned char  size(2) Largest target is 4
		 -> SEG_DONE(CODE[4]), showNumberDecEx@digits(BANK0[4]), 


Critical Paths under _main in COMMON

    _showNumberDecEx->_setSegments
    _setSegments->_writeByte
    _Setup->_setBrightness

Critical Paths under _ISR in COMMON

    None.

Critical Paths under _main in BANK0

    _main->_showNumberDecEx
    _showNumberDecEx->_setSegments

Critical Paths under _ISR in BANK0

    None.

Critical Paths under _main in BANK1

    None.

Critical Paths under _ISR in BANK1

    None.

Critical Paths under _main in BANK2

    None.

Critical Paths under _ISR in BANK2

    None.

Call Graph Tables:

 ---------------------------------------------------------------------------------
 (Depth) Function   	        Calls       Base Space   Used Autos Params    Refs
 ---------------------------------------------------------------------------------
 (0) _main                                                 2     2      0    4270
                                             23 BANK0      2     2      0
                              _Setup
                    _showNumberDecEx
 ---------------------------------------------------------------------------------
 (1) _showNumberDecEx                                     22    16      6    4126
                                              1 BANK0     22    16      6
                            ___awdiv
                             ___wmul
                        _encodeDigit
                        _setSegments
 ---------------------------------------------------------------------------------
 (2) _setSegments                                          7     3      4     909
                                              6 COMMON     6     2      4
                                              0 BANK0      1     1      0
                              _start
                               _stop
                          _writeByte
 ---------------------------------------------------------------------------------
 (3) _writeByte                                            5     5      0     208
                                              1 COMMON     5     5      0
                           _bitDelay
 ---------------------------------------------------------------------------------
 (3) _stop                                                 0     0      0       0
                           _bitDelay
 ---------------------------------------------------------------------------------
 (3) _start                                                0     0      0       0
                           _bitDelay
 ---------------------------------------------------------------------------------
 (4) _bitDelay                                             0     0      0       0
 ---------------------------------------------------------------------------------
 (2) _encodeDigit                                          1     1      0      22
                                              1 COMMON     1     1      0
 ---------------------------------------------------------------------------------
 (2) ___wmul                                               6     2      4    1144
                                              1 COMMON     6     2      4
 ---------------------------------------------------------------------------------
 (2) ___awdiv                                              9     5      4     452
                                              1 COMMON     9     5      4
 ---------------------------------------------------------------------------------
 (1) _Setup                                                0     0      0     144
                  _SYSTEM_Initialize
                      _setBrightness
 ---------------------------------------------------------------------------------
 (2) _setBrightness                                        4     3      1     144
                                              1 COMMON     4     3      1
 ---------------------------------------------------------------------------------
 (2) _SYSTEM_Initialize                                    0     0      0       0
                    _I2C1_Initialize
              _OSCILLATOR_Initialize
             _PIN_MANAGER_Initialize
                     _PMD_Initialize
 ---------------------------------------------------------------------------------
 (3) _PMD_Initialize                                       0     0      0       0
 ---------------------------------------------------------------------------------
 (3) _PIN_MANAGER_Initialize                               0     0      0       0
 ---------------------------------------------------------------------------------
 (3) _OSCILLATOR_Initialize                                0     0      0       0
 ---------------------------------------------------------------------------------
 (3) _I2C1_Initialize                                      0     0      0       0
 ---------------------------------------------------------------------------------
 Estimated maximum stack depth 4
 ---------------------------------------------------------------------------------
 (Depth) Function   	        Calls       Base Space   Used Autos Params    Refs
 ---------------------------------------------------------------------------------
 (5) _ISR                                                  1     1      0       0
                                              0 COMMON     1     1      0
 ---------------------------------------------------------------------------------
 Estimated maximum stack depth 5
 ---------------------------------------------------------------------------------

 Call Graph Graphs:

 _main (ROOT)
   _Setup
     _SYSTEM_Initialize
       _I2C1_Initialize
       _OSCILLATOR_Initialize
       _PIN_MANAGER_Initialize
       _PMD_Initialize
     _setBrightness
   _showNumberDecEx
     ___awdiv
     ___wmul
     _encodeDigit
     _setSegments
       _start
         _bitDelay
       _stop
         _bitDelay
       _writeByte
         _bitDelay

 _ISR (ROOT)

 Address spaces:
Name               Size   Autos  Total    Cost      Usage
BIGRAM              F0      0       0       0        0.0%
NULL                 0      0       0       0        0.0%
CODE                 0      0       0       0        0.0%
BITCOMMON            E      0       0       1        0.0%
BITSFR0              0      0       0       1        0.0%
SFR0                 0      0       0       1        0.0%
COMMON               E      C       D       2       92.9%
BITSFR1              0      0       0       2        0.0%
SFR1                 0      0       0       2        0.0%
BITSFR2              0      0       0       3        0.0%
SFR2                 0      0       0       3        0.0%
STACK                0      0       0       3        0.0%
BITBANK0            50      0       0       4        0.0%
BITSFR3              0      0       0       4        0.0%
SFR3                 0      0       0       4        0.0%
BANK0               50     19      3E       5       77.5%
BITSFR4              0      0       0       5        0.0%
SFR4                 0      0       0       5        0.0%
BITBANK1            50      0       0       6        0.0%
BITSFR5              0      0       0       6        0.0%
SFR5                 0      0       0       6        0.0%
BANK1               50      0       0       7        0.0%
BITSFR6              0      0       0       7        0.0%
SFR6                 0      0       0       7        0.0%
BITBANK2            50      0       0       8        0.0%
BITSFR7              0      0       0       8        0.0%
SFR7                 0      0       0       8        0.0%
BANK2               50      0       0       9        0.0%
BITSFR8              0      0       0       9        0.0%
SFR8                 0      0       0       9        0.0%
BITSFR9              0      0       0      10        0.0%
SFR9                 0      0       0      10        0.0%
ABS                  0      0      4B      10        0.0%
BITSFR10             0      0       0      11        0.0%
SFR10                0      0       0      11        0.0%
DATA                 0      0      4B      11        0.0%
BITSFR11             0      0       0      12        0.0%
SFR11                0      0       0      12        0.0%
BITSFR12             0      0       0      13        0.0%
SFR12                0      0       0      13        0.0%
BITSFR13             0      0       0      14        0.0%
SFR13                0      0       0      14        0.0%
BITSFR14             0      0       0      15        0.0%
SFR14                0      0       0      15        0.0%
BITSFR15             0      0       0      16        0.0%
SFR15                0      0       0      16        0.0%
BITSFR16             0      0       0      17        0.0%
SFR16                0      0       0      17        0.0%
BITSFR17             0      0       0      18        0.0%
SFR17                0      0       0      18        0.0%
BITSFR18             0      0       0      19        0.0%
SFR18                0      0       0      19        0.0%
BITSFR19             0      0       0      20        0.0%
SFR19                0      0       0      20        0.0%
BITSFR20             0      0       0      21        0.0%
SFR20                0      0       0      21        0.0%
BITSFR21             0      0       0      22        0.0%
SFR21                0      0       0      22        0.0%
BITSFR22             0      0       0      23        0.0%
SFR22                0      0       0      23        0.0%
BITSFR23             0      0       0      24        0.0%
SFR23                0      0       0      24        0.0%
BITSFR24             0      0       0      25        0.0%
SFR24                0      0       0      25        0.0%
BITSFR25             0      0       0      26        0.0%
SFR25                0      0       0      26        0.0%
BITSFR26             0      0       0      27        0.0%
SFR26                0      0       0      27        0.0%
BITSFR27             0      0       0      28        0.0%
SFR27                0      0       0      28        0.0%
BITSFR28             0      0       0      29        0.0%
SFR28                0      0       0      29        0.0%
BITSFR29             0      0       0      30        0.0%
SFR29                0      0       0      30        0.0%
BITSFR30             0      0       0      31        0.0%
SFR30                0      0       0      31        0.0%
BITSFR31             0      0       0      32        0.0%
SFR31                0      0       0      32        0.0%
BITSFR32             0      0       0      33        0.0%
SFR32                0      0       0      33        0.0%
BITSFR33             0      0       0      34        0.0%
SFR33                0      0       0      34        0.0%
BITSFR34             0      0       0      35        0.0%
SFR34                0      0       0      35        0.0%
BITSFR35             0      0       0      36        0.0%
SFR35                0      0       0      36        0.0%
BITSFR36             0      0       0      37        0.0%
SFR36                0      0       0      37        0.0%
BITSFR37             0      0       0      38        0.0%
SFR37                0      0       0      38        0.0%
BITSFR38             0      0       0      39        0.0%
SFR38                0      0       0      39        0.0%
BITSFR39             0      0       0      40        0.0%
SFR39                0      0       0      40        0.0%
BITSFR40             0      0       0      41        0.0%
SFR40                0      0       0      41        0.0%
BITSFR41             0      0       0      42        0.0%
SFR41                0      0       0      42        0.0%
BITSFR42             0      0       0      43        0.0%
SFR42                0      0       0      43        0.0%
BITSFR43             0      0       0      44        0.0%
SFR43                0      0       0      44        0.0%
BITSFR44             0      0       0      45        0.0%
SFR44                0      0       0      45        0.0%
BITSFR45             0      0       0      46        0.0%
SFR45                0      0       0      46        0.0%
BITSFR46             0      0       0      47        0.0%
SFR46                0      0       0      47        0.0%
BITSFR47             0      0       0      48        0.0%
SFR47                0      0       0      48        0.0%
BITSFR48             0      0       0      49        0.0%
SFR48                0      0       0      49        0.0%
BITSFR49             0      0       0      50        0.0%
SFR49                0      0       0      50        0.0%
BITSFR50             0      0       0      51        0.0%
SFR50                0      0       0      51        0.0%
BITSFR51             0      0       0      52        0.0%
SFR51                0      0       0      52        0.0%
BITSFR52             0      0       0      53        0.0%
SFR52                0      0       0      53        0.0%
BITSFR53             0      0       0      54        0.0%
SFR53                0      0       0      54        0.0%
BITSFR54             0      0       0      55        0.0%
SFR54                0      0       0      55        0.0%
BITSFR55             0      0       0      56        0.0%
SFR55                0      0       0      56        0.0%
BITSFR56             0      0       0      57        0.0%
SFR56                0      0       0      57        0.0%
BITSFR57             0      0       0      58        0.0%
SFR57                0      0       0      58        0.0%
BITSFR58             0      0       0      59        0.0%
SFR58                0      0       0      59        0.0%
BITSFR59             0      0       0      60        0.0%
SFR59                0      0       0      60        0.0%
BITSFR60             0      0       0      61        0.0%
SFR60                0      0       0      61        0.0%
BITSFR61             0      0       0      62        0.0%
SFR61                0      0       0      62        0.0%
BITSFR62             0      0       0      63        0.0%
SFR62                0      0       0      63        0.0%
BITSFR63             0      0       0      64        0.0%
SFR63                0      0       0      64        0.0%


Microchip Technology PIC Macro Assembler V2.46 build 20240104201356 
Symbol Table                                                                                   Fri Jul 19 21:02:05 2024

                   ___awdiv@sign 0077              ___wmul@multiplicand 0073                              l207 02AC  
                            l532 01C7                              l526 0253                              l551 02D0  
                            l472 028E                              l721 021B                              l650 0241  
                            l554 02C3                              l562 026B                              l570 0147  
                            l475 02A3                              l723 022F                              l556 02C8  
                            l564 0270                              l580 0169                              l548 00E3  
                            l565 0273                              l573 0150                              l478 02BC  
                            l590 0184                              l582 016B                              l559 0264  
                            l591 0187                              l576 0153                              l585 0171  
                            l594 0299                              l499 0281                              l587 017E  
                            l579 015A                              l874 0142                              u700 022B  
                            _ISR 0004                              u701 022A                              u710 00E9  
                            u711 00E8                              u800 0139                              u720 00F4  
                            u801 0138                              u721 00F3                              u650 0248  
                            u730 0105                              u651 0247                              u731 0104  
                            u750 0115                              u670 0217                              u751 0114  
                            u671 0216                              u745 0109                              u770 0124  
                            u771 0123                              u940 0150                              u765 0116  
                            u685 021C                              u941 014F                              u790 0134  
                            u950 0169                              u791 0133                              u775 0120  
                            u695 0221                              u951 0168                              u960 017E  
                            u785 012A                              u961 017D                              u970 01B8  
                            u971 01B7                              u980 008F                              u981 008E  
                            u990 0094                              u991 0093                              wreg 0009  
           _I2C1_DO_RX_NACK_STOP 0000                             ?_ISR 0070                             l2001 029E  
                           l2003 02A1                             l2005 02A2                             l2101 00E9  
                           l2111 00FD                             l2103 00EE                             l2121 0111  
                           l2113 00FF                             l2105 00F0                             l2051 0282  
                           l2131 012E                             l2123 0115                             l2115 0105  
                           l2107 00F4                             l2053 0285                             l2061 0248  
                           l2125 0124                             l2117 0108                             l2133 0134  
                           l2109 00F9                             l2301 0089                             l2055 0288  
                           l2063 024B                             l2135 0139                             l2127 0128  
                           l2119 010D                             l2231 02C5                             l2311 00A6  
                           l2303 008F                             l2057 028B                             l2065 024F  
                           l2137 013E                             l2129 0129                             l2241 0149  
                           l2233 0144                             l2321 00C4                             l2305 0094  
                           l2313 00A8                             l2059 0243                             l2091 0225  
                           l2083 0211                             l2251 015F                             l2243 014C  
                           l2235 0146                             l2323 00C6                             l2315 00AE  
                           l2307 0099                             l2093 022B                             l2085 0213  
                           l2229 02CD                             l2261 0179                             l2253 0163  
                           l2245 0155                             l2325 00CC                             l2317 00BE  
                           l2309 009F                             l2333 01C8                             l2191 0237  
                           l2087 0217                             l2079 0290                             l2271 0269  
                           l2263 017F                             l2255 016C                             l2247 0158  
                           l2327 00D0                             l2319 00BF                             l2335 01CB  
                           l2193 0239                             l2185 0230                             l2097 00E4  
                           l2089 0220                             l2273 026E                             l2265 0182  
                           l2257 016F                             l2249 015D                             l2281 01AD  
                           l2329 00D7                             l2337 01D8                             l2195 023A  
                           l2187 0233                             l2099 00E5                             l2259 0174  
                           l2283 01B2                             l2275 0188                             l2339 01E6  
                           l2189 0235                             l2269 0266                             l2285 01B8  
                           l2277 019B                             l2279 019E                             l2295 005E  
                           l2287 005A                             l2297 0079                             l2289 005D  
                           l2299 0089                             l1981 02AB                             l1975 02A4  
                           l1991 027C                             l1983 02B5                             l1977 02A6  
                           l1993 027D                             l1985 0274                             l1979 02A8  
                           l1995 027F                             l1987 0276                             l1997 029A  
                           l1989 0278                             l1999 029D                             u1000 0099  
                           u1001 0098                             u1010 009F                             u1011 009E  
                           u1020 00D7                             u1021 00D6                             u1037 01EA  
                           u1047 02CE                             _LATA 0018                             _PMD0 0796  
                           _PMD1 0797                             _PMD2 0798                             _PMD3 0799  
                           _PMD4 079A                             _PMD5 079B                             _WPUA 1F39  
          __end_of_setBrightness 0254                             _main 01C8           showNumberDecEx@leading 0055  
                           fsr0h 0005                             fsr1h 0007                             indf0 0000  
                           fsr0l 0004                             indf1 0001                             fsr1l 0006  
         showNumberDecEx@divisor 0056                             btemp 007E                             _stop 0264  
                           start 004D                            ??_ISR 0070    __end_of_OSCILLATOR_Initialize 02A4  
                          ?_main 0070                  __end_of___awdiv 0143                            ?_stop 0070  
                ___awdiv@divisor 0071                            i1l634 003B                            i1l636 004B  
                ___awdiv@counter 0076       __end_of_i2c1_fsmStateTable 0211                            _OSCEN 0891  
               __end_of_SEG_DONE 02CD                            _TRISA 0012                            u90_20 0024  
                          u90_21 0022                            u90_22 0025                            u91_20 002A  
                          u91_21 0029                            u92_20 0037                            u92_21 0036  
                          u93_20 0048                            u93_21 0047                            u93_25 0044  
                          u86_20 000B                            u86_21 000A                            u87_20 0010  
                          u87_21 000F                            u88_20 0014                            u88_21 0013  
                          u89_20 001D                            u89_21 001B                            u89_22 001E  
              ??_I2C1_Initialize 0071                            _Setup 0230                            _start 02C3  
        showNumberDecEx@divisors 02AD                            status 0003                            wtemp0 007E  
                __initialization 004E                     __end_of_main 01F1                     __end_of_stop 0274  
                         ??_main 005C                           ??_stop 0071          _IOCAF4_InterruptHandler 0043  
                         ?_Setup 0070                     ?_setSegments 0076                 ___awdiv@dividend 0073  
                         _ANSELA 1F38                           ?_start 0070                           i1l2201 000B  
                         i1l2211 002F                           i1l2203 0010                           i1l2213 0033  
                         i1l2205 0014                           i1l2215 0037                           i1l2207 0017  
                         i1l2217 0048                           i1l2209 002A                           _ODCONA 1F3A  
                         i1l2199 0006                           _INLVLA 1F3C                ??_showNumberDecEx 004C  
                         _OSCFRQ 0893                 __end_of_bitDelay 02D1                 _I2C1_DO_TX_EMPTY 0000  
        setBrightness@brightness 0072                           ___wmul 0211                        ??___awdiv 0075  
               ___awdiv@quotient 0078            _I2C1_DO_SEND_ADR_READ 0000                   _PMD_Initialize 02B5  
            setSegments@segments 0076          _I2C1_DO_RX_NACK_RESTART 0000                  setBrightness@on 0071  
              _SYSTEM_Initialize 0282          __end_of__initialization 0057               ?_SYSTEM_Initialize 0070  
        _rdBlkRegCompleteHandler 0000                   __pcstackCOMMON 0070                    __end_of_Setup 0242  
            ??_SYSTEM_Initialize 0071      showNumberDecEx@leading_zero 0049                    __end_of_start 02C9  
         __end_of_PMD_Initialize 02BD                          ??_Setup 0075        __end_of_SYSTEM_Initialize 028F  
                        ??_start 0071                       __pbssBANK0 0020            _rd1RegCompleteHandler 0000  
        _IOCAF5_InterruptHandler 0041                _I2C1_DO_SEND_STOP 0000  __end_ofshowNumberDecEx@divisors 02B5  
          _wr1RegCompleteHandler 0000                       __pmaintext 01C8                          ?___wmul 0071  
                     __pintentry 0004                  _I2C1_Initialize 02A4                  ?_PMD_Initialize 0070  
                      ?_bitDelay 0070                          _OSCCON1 088D                          _OSCCON3 088F  
                        _OSCSTAT 0890                          _OSCTUNE 0892                          _SSP1ADD 018D  
                        _SLRCONA 1F3B                          _SSP1BUF 018C               _i2c1_fsmStateTable 01F1  
                        ___awdiv 00E4                   _digitToSegment 0254                          __ptext1 005A  
                        __ptext2 0188                          __ptext3 0143                          __ptext4 0264  
                        __ptext5 02C3                          __ptext6 02CD                          __ptext7 028F  
                        __ptext8 0211                          __ptext9 00E4                          _counter 003F  
                _showNumberDecEx 005A            _OSCILLATOR_Initialize 029A                       ??_bitDelay 0071  
       ??_PIN_MANAGER_Initialize 0071                        _IOCAFbits 1F3F                        _IOCANbits 1F3E  
                        clrloop0 02BE               showNumberDecEx@num 0046               showNumberDecEx@pos 004B  
           end_of_initialization 0057           _I2C1_DO_SEND_ADR_WRITE 0000          __end_of_I2C1_Initialize 02AD  
                    _I2C1_Status 0020           __end_of_digitToSegment 0264       _I2C1_DO_SEND_RESTART_WRITE 0000  
                   writeByte@ack 0073                        _PORTAbits 000C                     _m_brightness 007C  
              __end_of_writeByte 0188                        _TRISAbits 0012                    ??_encodeDigit 0071  
                  _setBrightness 0242            showNumberDecEx@digits 0051            showNumberDecEx@length 004A  
        __end_of_showNumberDecEx 00E4                   __end_of___wmul 0230                   _I2C1_DO_RX_ACK 0000  
         ?_OSCILLATOR_Initialize 0070              start_initialization 004E                      __end_of_ISR 004D  
                 ?_setBrightness 0071                 ?_I2C1_Initialize 0070              __end_of_encodeDigit 029A  
               ??_PMD_Initialize 0071                         ??___wmul 0075                      __pbssCOMMON 007C  
           _I2C1_DO_SEND_RESTART 0000                        ___latbits 0000                    __pcstackBANK0 0045  
             _setBrightness$1050 0073            _rd2RegCompleteHandler 0000           _PIN_MANAGER_Initialize 0274  
          _wr2RegCompleteHandler 0000                         ?___awdiv 0071                 ?_showNumberDecEx 0046  
                  ??_setSegments 007A                  ??_setBrightness 0072                      _encodeDigit 028F  
                 ___wmul@product 0075                       _I2C1_DO_RX 0000                       _I2C1_DO_TX 0000  
                      clear_ram0 02BD                         _PIE0bits 0716                         _PIE3bits 0719  
                       _PIR0bits 070C                         _PIR3bits 070F                         _SEG_DONE 02C9  
      _I2C1_DO_SEND_RESTART_READ 0000                         _SSP1CON1 0190                         _SSP1CON2 0191  
                       _SSP1STAT 018F                     setSegments@k 0045                ___wmul@multiplier 0071  
           showNumberDecEx@digit 0058                    _I2C1_DO_RESET 0000                        _writeByte 0143  
            __end_of_setSegments 01C8                setSegments@length 0078          ??_OSCILLATOR_Initialize 0071  
                       _bitDelay 02CD                         __ptext10 0230                         __ptext11 0242  
                       __ptext12 0282                         __ptext13 02B5                         __ptext14 0274  
                       __ptext15 029A                         __ptext16 02A4                       ?_writeByte 0070  
                   _SSP1CON1bits 0190                     _SSP1CON2bits 0191                         _counter1 003D  
       _I2C1_CallbackReturnReset 0000                 showNumberDecEx@d 0059                 showNumberDecEx@k 005B  
                     writeByte@b 0072                       writeByte@i 0075                         int$flags 007E  
                   _SSP1STATbits 018F              showNumberDecEx@dots 0048                     _I2C1_DO_IDLE 0000  
                   _I2C1_DO_RCEN 0000                       _INTCONbits 000B                      _setSegments 0188  
                       intlevel1 0000          ?_PIN_MANAGER_Initialize 0070          _I2C1_CallbackReturnStop 0000  
           _I2C1_DO_ADDRESS_NACK 0000                 encodeDigit@digit 0071                    __pstringtext1 01F1  
                  __pstringtext2 0254                    __pstringtext3 02AD                    __pstringtext4 02C9  
                  writeByte@data 0074                      ??_writeByte 0071                   setSegments@pos 0079  
 __end_of_PIN_MANAGER_Initialize 0282                     ?_encodeDigit 0070  
